---
triple:          'x86_64-apple-darwin'
binary-path:     '/Users/gulizbitirim/Library/CloudStorage/OneDrive-MMU/Desktop/uni/year4/programmingLanguagesAndParadigms/assignment/OO/OO'
relocations:
  - { offsetInCU: 0x6AE2, offset: 0x6AE2, size: 0x8, addend: 0x0, symName: __ZNSt3__124__put_character_sequenceB7v160006IcNS_11char_traitsIcEEEERNS_13basic_ostreamIT_T0_EES7_PKS4_m, symObjAddr: 0x5820, symBinAddr: 0x100009330, symSize: 0x1F0 }
  - { offsetInCU: 0x87D9, offset: 0x87D9, size: 0x8, addend: 0x0, symName: __ZNSt3__119__debug_db_insert_cB7v160006INS_6vectorI5PointNS_9allocatorIS2_EEEEEEvPT_, symObjAddr: 0x980, symBinAddr: 0x100004490, symSize: 0x10 }
  - { offsetInCU: 0x880A, offset: 0x880A, size: 0x8, addend: 0x0, symName: __ZNSt3__112__to_addressB7v160006I5PointEEPT_S3_, symObjAddr: 0xC70, symBinAddr: 0x100004780, symSize: 0x10 }
  - { offsetInCU: 0x883F, offset: 0x883F, size: 0x8, addend: 0x0, symName: __ZNSt3__13maxB7v160006ImEERKT_S3_S3_, symObjAddr: 0x1050, symBinAddr: 0x100004B60, symSize: 0x30 }
  - { offsetInCU: 0x8882, offset: 0x8882, size: 0x8, addend: 0x0, symName: __ZNSt3__13minB7v160006ImEERKT_S3_S3_, symObjAddr: 0x1080, symBinAddr: 0x100004B90, symSize: 0x30 }
  - { offsetInCU: 0x8AC6, offset: 0x8AC6, size: 0x8, addend: 0x0, symName: __ZNSt3__13minB7v160006ImNS_6__lessImmEEEERKT_S5_S5_T0_, symObjAddr: 0x1100, symBinAddr: 0x100004C10, symSize: 0x50 }
  - { offsetInCU: 0x8B5B, offset: 0x8B5B, size: 0x8, addend: 0x0, symName: __ZNSt3__120__throw_length_errorB7v160006EPKc, symObjAddr: 0x11E0, symBinAddr: 0x100004CF0, symSize: 0x70 }
  - { offsetInCU: 0x8B83, offset: 0x8B83, size: 0x8, addend: 0x0, symName: __ZNSt3__13maxB7v160006ImNS_6__lessImmEEEERKT_S5_S5_T0_, symObjAddr: 0x1310, symBinAddr: 0x100004E20, symSize: 0x50 }
  - { offsetInCU: 0x8BDD, offset: 0x8BDD, size: 0x8, addend: 0x0, symName: __ZNSt3__119__allocate_at_leastB7v160006INS_9allocatorI5PointEEEENS_19__allocation_resultINS_16allocator_traitsIT_E7pointerEEERS6_m, symObjAddr: 0x1460, symBinAddr: 0x100004F70, symSize: 0x40 }
  - { offsetInCU: 0x8C20, offset: 0x8C20, size: 0x8, addend: 0x0, symName: __ZNSt3__117__libcpp_allocateB7v160006Emm, symObjAddr: 0x15D0, symBinAddr: 0x1000050E0, symSize: 0x20 }
  - { offsetInCU: 0x8C5D, offset: 0x8C5D, size: 0x8, addend: 0x0, symName: __ZNSt3__121__libcpp_operator_newB7v160006IJmEEEPvDpT_, symObjAddr: 0x15F0, symBinAddr: 0x100005100, symSize: 0x20 }
  - { offsetInCU: 0x8C96, offset: 0x8C96, size: 0x8, addend: 0x0, symName: __ZNSt3__142__uninitialized_allocator_move_if_noexceptB7v160006INS_9allocatorI5PointEENS_16reverse_iteratorIPS2_EES6_S2_vEET1_RT_T0_SA_S7_, symObjAddr: 0x1720, symBinAddr: 0x100005230, symSize: 0x70 }
  - { offsetInCU: 0x8D12, offset: 0x8D12, size: 0x8, addend: 0x0, symName: __ZNSt3__14swapB7v160006IP5PointEENS_9enable_ifIXaasr21is_move_constructibleIT_EE5valuesr18is_move_assignableIS4_EE5valueEvE4typeERS4_S7_, symObjAddr: 0x17E0, symBinAddr: 0x1000052F0, symSize: 0x40 }
  - { offsetInCU: 0x8D63, offset: 0x8D63, size: 0x8, addend: 0x0, symName: __ZNSt3__125__debug_db_invalidate_allB7v160006INS_6vectorI5PointNS_9allocatorIS2_EEEEEEvPT_, symObjAddr: 0x18D0, symBinAddr: 0x1000053E0, symSize: 0x10 }
  - { offsetInCU: 0x8D94, offset: 0x8D94, size: 0x8, addend: 0x0, symName: __ZNSt3__14moveB7v160006INS_16reverse_iteratorIP5PointEES4_EET0_T_S6_S5_, symObjAddr: 0x1920, symBinAddr: 0x100005430, symSize: 0x80 }
  - { offsetInCU: 0x8DEE, offset: 0x8DEE, size: 0x8, addend: 0x0, symName: __ZNSt3__16__moveB7v160006INS_17_ClassicAlgPolicyENS_16reverse_iteratorIP5PointEES5_S5_EENS_4pairIT0_T2_EES7_T1_S8_, symObjAddr: 0x19A0, symBinAddr: 0x1000054B0, symSize: 0x90 }
  - { offsetInCU: 0x8E5A, offset: 0x8E5A, size: 0x8, addend: 0x0, symName: __ZNSt3__123__dispatch_copy_or_moveB7v160006INS_17_ClassicAlgPolicyENS_11__move_loopIS1_EENS_14__move_trivialENS_16reverse_iteratorIP5PointEES8_S8_EENS_4pairIT2_T4_EESA_T3_SB_, symObjAddr: 0x1A30, symBinAddr: 0x100005540, symSize: 0x90 }
  - { offsetInCU: 0x8ED8, offset: 0x8ED8, size: 0x8, addend: 0x0, symName: __ZNSt3__121__unwrap_and_dispatchB7v160006INS_10__overloadINS_11__move_loopINS_17_ClassicAlgPolicyEEENS_14__move_trivialEEENS_16reverse_iteratorIP5PointEESA_SA_Li0EEENS_4pairIT0_T2_EESC_T1_SD_, symObjAddr: 0x1AC0, symBinAddr: 0x1000055D0, symSize: 0x210 }
  - { offsetInCU: 0x8F67, offset: 0x8F67, size: 0x8, addend: 0x0, symName: __ZNSt3__114__unwrap_rangeB7v160006INS_16reverse_iteratorIP5PointEES4_EENS_4pairIT0_S6_EET_S8_, symObjAddr: 0x1CD0, symBinAddr: 0x1000057E0, symSize: 0x90 }
  - { offsetInCU: 0x9121, offset: 0x9121, size: 0x8, addend: 0x0, symName: __ZNSt3__113__unwrap_iterB7v160006INS_16reverse_iteratorIP5PointEENS_18__unwrap_iter_implIS4_Lb0EEELi0EEEDTclsrT0_8__unwrapclsr3stdE7declvalIT_EEEES8_, symObjAddr: 0x1E00, symBinAddr: 0x100005910, symSize: 0x40 }
  - { offsetInCU: 0x9165, offset: 0x9165, size: 0x8, addend: 0x0, symName: __ZNSt3__19make_pairB7v160006INS_16reverse_iteratorIP5PointEES4_EENS_4pairINS_18__unwrap_ref_decayIT_E4typeENS6_IT0_E4typeEEEOS7_OSA_, symObjAddr: 0x1E40, symBinAddr: 0x100005950, symSize: 0x30 }
  - { offsetInCU: 0x91B4, offset: 0x91B4, size: 0x8, addend: 0x0, symName: __ZNSt3__114__rewrap_rangeB7v160006INS_16reverse_iteratorIP5PointEES4_EET_S5_T0_, symObjAddr: 0x1E70, symBinAddr: 0x100005980, symSize: 0x60 }
  - { offsetInCU: 0x9200, offset: 0x9200, size: 0x8, addend: 0x0, symName: __ZNSt3__113__rewrap_iterB7v160006INS_16reverse_iteratorIP5PointEES4_NS_18__unwrap_iter_implIS4_Lb0EEEEET_S7_T0_, symObjAddr: 0x1ED0, symBinAddr: 0x1000059E0, symSize: 0x70 }
  - { offsetInCU: 0x9255, offset: 0x9255, size: 0x8, addend: 0x0, symName: __ZNSt3__1neB7v160006IP5PointS2_EEbRKNS_16reverse_iteratorIT_EERKNS3_IT0_EE, symObjAddr: 0x1F40, symBinAddr: 0x100005A50, symSize: 0x40 }
  - { offsetInCU: 0x9386, offset: 0x9386, size: 0x8, addend: 0x0, symName: __ZNSt3__119__libcpp_deallocateB7v160006EPvmm, symObjAddr: 0x2310, symBinAddr: 0x100005E20, symSize: 0x30 }
  - { offsetInCU: 0x93CE, offset: 0x93CE, size: 0x8, addend: 0x0, symName: __ZNSt3__127__do_deallocate_handle_sizeB7v160006IJEEEvPvmDpT_, symObjAddr: 0x2340, symBinAddr: 0x100005E50, symSize: 0x20 }
  - { offsetInCU: 0x940C, offset: 0x940C, size: 0x8, addend: 0x0, symName: __ZNSt3__124__libcpp_operator_deleteB7v160006IJPvEEEvDpT_, symObjAddr: 0x2360, symBinAddr: 0x100005E70, symSize: 0x20 }
  - { offsetInCU: 0x9441, offset: 0x9441, size: 0x8, addend: 0x0, symName: __ZNSt3__118__debug_db_erase_cB7v160006INS_6vectorI5PointNS_9allocatorIS2_EEEEEEvPT_, symObjAddr: 0x2500, symBinAddr: 0x100006010, symSize: 0x10 }
  - { offsetInCU: 0x9472, offset: 0x9472, size: 0x8, addend: 0x0, symName: __ZNSt3__119__debug_db_insert_cB7v160006INS_6vectorI6MeteorNS_9allocatorIS2_EEEEEEvPT_, symObjAddr: 0x2670, symBinAddr: 0x100006180, symSize: 0x10 }
  - { offsetInCU: 0x94A3, offset: 0x94A3, size: 0x8, addend: 0x0, symName: __ZNSt3__115__debug_db_swapB7v160006INS_6vectorI5PointNS_9allocatorIS2_EEEEEEvPT_S7_, symObjAddr: 0x28F0, symBinAddr: 0x100006400, symSize: 0x10 }
  - { offsetInCU: 0x94E2, offset: 0x94E2, size: 0x8, addend: 0x0, symName: __ZNSt3__1neB7v160006IPK5PointEEbRKNS_11__wrap_iterIT_EES8_, symObjAddr: 0x2C10, symBinAddr: 0x100006720, symSize: 0x30 }
  - { offsetInCU: 0x9525, offset: 0x9525, size: 0x8, addend: 0x0, symName: __ZNSt3__1eqB7v160006IPK5PointEEbRKNS_11__wrap_iterIT_EES8_, symObjAddr: 0x2D00, symBinAddr: 0x100006810, symSize: 0x40 }
  - { offsetInCU: 0x9568, offset: 0x9568, size: 0x8, addend: 0x0, symName: __ZNSt3__112__to_addressB7v160006I6MeteorEEPT_S3_, symObjAddr: 0x2F90, symBinAddr: 0x100006AA0, symSize: 0x10 }
  - { offsetInCU: 0x959D, offset: 0x959D, size: 0x8, addend: 0x0, symName: __ZNSt3__119__allocate_at_leastB7v160006INS_9allocatorI6MeteorEEEENS_19__allocation_resultINS_16allocator_traitsIT_E7pointerEEERS6_m, symObjAddr: 0x3530, symBinAddr: 0x100007040, symSize: 0x40 }
  - { offsetInCU: 0x95E0, offset: 0x95E0, size: 0x8, addend: 0x0, symName: __ZNSt3__142__uninitialized_allocator_move_if_noexceptB7v160006INS_9allocatorI6MeteorEENS_16reverse_iteratorIPS2_EES6_S2_vEET1_RT_T0_SA_S7_, symObjAddr: 0x3770, symBinAddr: 0x100007280, symSize: 0x70 }
  - { offsetInCU: 0x965C, offset: 0x965C, size: 0x8, addend: 0x0, symName: __ZNSt3__14swapB7v160006IP6MeteorEENS_9enable_ifIXaasr21is_move_constructibleIT_EE5valuesr18is_move_assignableIS4_EE5valueEvE4typeERS4_S7_, symObjAddr: 0x3830, symBinAddr: 0x100007340, symSize: 0x40 }
  - { offsetInCU: 0x96AD, offset: 0x96AD, size: 0x8, addend: 0x0, symName: __ZNSt3__125__debug_db_invalidate_allB7v160006INS_6vectorI6MeteorNS_9allocatorIS2_EEEEEEvPT_, symObjAddr: 0x3920, symBinAddr: 0x100007430, symSize: 0x10 }
  - { offsetInCU: 0x96DE, offset: 0x96DE, size: 0x8, addend: 0x0, symName: __ZNSt3__14moveB7v160006INS_16reverse_iteratorIP6MeteorEES4_EET0_T_S6_S5_, symObjAddr: 0x3970, symBinAddr: 0x100007480, symSize: 0x80 }
  - { offsetInCU: 0x9738, offset: 0x9738, size: 0x8, addend: 0x0, symName: __ZNSt3__16__moveB7v160006INS_17_ClassicAlgPolicyENS_16reverse_iteratorIP6MeteorEES5_S5_EENS_4pairIT0_T2_EES7_T1_S8_, symObjAddr: 0x39F0, symBinAddr: 0x100007500, symSize: 0x90 }
  - { offsetInCU: 0x97A4, offset: 0x97A4, size: 0x8, addend: 0x0, symName: __ZNSt3__123__dispatch_copy_or_moveB7v160006INS_17_ClassicAlgPolicyENS_11__move_loopIS1_EENS_14__move_trivialENS_16reverse_iteratorIP6MeteorEES8_S8_EENS_4pairIT2_T4_EESA_T3_SB_, symObjAddr: 0x3A80, symBinAddr: 0x100007590, symSize: 0x90 }
  - { offsetInCU: 0x9822, offset: 0x9822, size: 0x8, addend: 0x0, symName: __ZNSt3__121__unwrap_and_dispatchB7v160006INS_10__overloadINS_11__move_loopINS_17_ClassicAlgPolicyEEENS_14__move_trivialEEENS_16reverse_iteratorIP6MeteorEESA_SA_Li0EEENS_4pairIT0_T2_EESC_T1_SD_, symObjAddr: 0x3B10, symBinAddr: 0x100007620, symSize: 0x210 }
  - { offsetInCU: 0x98B1, offset: 0x98B1, size: 0x8, addend: 0x0, symName: __ZNSt3__114__unwrap_rangeB7v160006INS_16reverse_iteratorIP6MeteorEES4_EENS_4pairIT0_S6_EET_S8_, symObjAddr: 0x3D20, symBinAddr: 0x100007830, symSize: 0x90 }
  - { offsetInCU: 0x99D1, offset: 0x99D1, size: 0x8, addend: 0x0, symName: __ZNSt3__113__unwrap_iterB7v160006INS_16reverse_iteratorIP6MeteorEENS_18__unwrap_iter_implIS4_Lb0EEELi0EEEDTclsrT0_8__unwrapclsr3stdE7declvalIT_EEEES8_, symObjAddr: 0x3E50, symBinAddr: 0x100007960, symSize: 0x40 }
  - { offsetInCU: 0x9A15, offset: 0x9A15, size: 0x8, addend: 0x0, symName: __ZNSt3__19make_pairB7v160006INS_16reverse_iteratorIP6MeteorEES4_EENS_4pairINS_18__unwrap_ref_decayIT_E4typeENS6_IT0_E4typeEEEOS7_OSA_, symObjAddr: 0x3E90, symBinAddr: 0x1000079A0, symSize: 0x30 }
  - { offsetInCU: 0x9A64, offset: 0x9A64, size: 0x8, addend: 0x0, symName: __ZNSt3__114__rewrap_rangeB7v160006INS_16reverse_iteratorIP6MeteorEES4_EET_S5_T0_, symObjAddr: 0x3EC0, symBinAddr: 0x1000079D0, symSize: 0x60 }
  - { offsetInCU: 0x9AB0, offset: 0x9AB0, size: 0x8, addend: 0x0, symName: __ZNSt3__113__rewrap_iterB7v160006INS_16reverse_iteratorIP6MeteorEES4_NS_18__unwrap_iter_implIS4_Lb0EEEEET_S7_T0_, symObjAddr: 0x3F20, symBinAddr: 0x100007A30, symSize: 0x70 }
  - { offsetInCU: 0x9B05, offset: 0x9B05, size: 0x8, addend: 0x0, symName: __ZNSt3__1neB7v160006IP6MeteorS2_EEbRKNS_16reverse_iteratorIT_EERKNS3_IT0_EE, symObjAddr: 0x3F90, symBinAddr: 0x100007AA0, symSize: 0x40 }
  - { offsetInCU: 0x9BBD, offset: 0x9BBD, size: 0x8, addend: 0x0, symName: __ZNSt3__1neB7v160006IPK6MeteorEEbRKNS_11__wrap_iterIT_EES8_, symObjAddr: 0x45C0, symBinAddr: 0x1000080D0, symSize: 0x30 }
  - { offsetInCU: 0x9C00, offset: 0x9C00, size: 0x8, addend: 0x0, symName: __ZNSt3__1eqB7v160006IPK6MeteorEEbRKNS_11__wrap_iterIT_EES8_, symObjAddr: 0x46B0, symBinAddr: 0x1000081C0, symSize: 0x40 }
  - { offsetInCU: 0x9C43, offset: 0x9C43, size: 0x8, addend: 0x0, symName: __ZNSt3__118__debug_db_erase_cB7v160006INS_6vectorI6MeteorNS_9allocatorIS2_EEEEEEvPT_, symObjAddr: 0x4870, symBinAddr: 0x100008380, symSize: 0x10 }
  - { offsetInCU: 0x9C74, offset: 0x9C74, size: 0x8, addend: 0x0, symName: __ZNSt3__1lsB7v160006INS_11char_traitsIcEEEERNS_13basic_ostreamIcT_EES6_PKc, symObjAddr: 0x51E0, symBinAddr: 0x100008CF0, symSize: 0x40 }
  - { offsetInCU: 0x9CBA, offset: 0x9CBA, size: 0x8, addend: 0x0, symName: __ZNSt3__14endlB7v160006IcNS_11char_traitsIcEEEERNS_13basic_ostreamIT_T0_EES7_, symObjAddr: 0x5240, symBinAddr: 0x100008D50, symSize: 0x50 }
  - { offsetInCU: 0x9CFA, offset: 0x9CFA, size: 0x8, addend: 0x0, symName: __ZNSt3__1plB7v160006IcNS_11char_traitsIcEENS_9allocatorIcEEEENS_12basic_stringIT_T0_T1_EEOS9_PKS6_, symObjAddr: 0x54A0, symBinAddr: 0x100008FB0, symSize: 0x50 }
  - { offsetInCU: 0x9D52, offset: 0x9D52, size: 0x8, addend: 0x0, symName: __ZNSt3__1plB7v160006IcNS_11char_traitsIcEENS_9allocatorIcEEEENS_12basic_stringIT_T0_T1_EEPKS6_OS9_, symObjAddr: 0x54F0, symBinAddr: 0x100009000, symSize: 0x50 }
  - { offsetInCU: 0x9DAA, offset: 0x9DAA, size: 0x8, addend: 0x0, symName: __ZNSt3__1lsB7v160006INS_11char_traitsIcEEEERNS_13basic_ostreamIcT_EES6_c, symObjAddr: 0x5560, symBinAddr: 0x100009070, symSize: 0x30 }
  - { offsetInCU: 0x9DF0, offset: 0x9DF0, size: 0x8, addend: 0x0, symName: __ZNSt3__119__debug_db_insert_cB7v160006INS_12basic_stringIcNS_11char_traitsIcEENS_9allocatorIcEEEEEEvPT_, symObjAddr: 0x56D0, symBinAddr: 0x1000091E0, symSize: 0x10 }
  - { offsetInCU: 0x9E21, offset: 0x9E21, size: 0x8, addend: 0x0, symName: __ZNSt3__115__debug_db_swapB7v160006INS_12basic_stringIcNS_11char_traitsIcEENS_9allocatorIcEEEEEEvPT_S8_, symObjAddr: 0x5710, symBinAddr: 0x100009220, symSize: 0x10 }
  - { offsetInCU: 0x9E60, offset: 0x9E60, size: 0x8, addend: 0x0, symName: __ZNSt3__116__pad_and_outputB7v160006IcNS_11char_traitsIcEEEENS_19ostreambuf_iteratorIT_T0_EES6_PKS4_S8_S8_RNS_8ios_baseES4_, symObjAddr: 0x5A30, symBinAddr: 0x100009540, symSize: 0x220 }
  - { offsetInCU: 0x9F30, offset: 0x9F30, size: 0x8, addend: 0x0, symName: __ZNSt3__112__to_addressB7v160006IKcEEPT_S3_, symObjAddr: 0x5F50, symBinAddr: 0x100009A60, symSize: 0x10 }
  - { offsetInCU: 0x9F98, offset: 0x9F98, size: 0x8, addend: 0x0, symName: __ZNSt3__19use_facetB7v160006INS_5ctypeIcEEEERKT_RKNS_6localeE, symObjAddr: 0x6150, symBinAddr: 0x100009C60, symSize: 0x30 }
  - { offsetInCU: 0xA4B6, offset: 0xA4B6, size: 0x8, addend: 0x0, symName: __ZNSt3__1miB7v160006IPK5PointPS1_EEDTmicldtfp_4baseEcldtfp0_4baseEERKNS_11__wrap_iterIT_EERKNS6_IT0_EE, symObjAddr: 0x6640, symBinAddr: 0x10000A150, symSize: 0x40 }
  - { offsetInCU: 0xA535, offset: 0xA535, size: 0x8, addend: 0x0, symName: __ZNSt3__113move_backwardB7v160006IP5PointS2_EET0_T_S4_S3_, symObjAddr: 0x6CF0, symBinAddr: 0x10000A800, symSize: 0x40 }
  - { offsetInCU: 0xA58F, offset: 0xA58F, size: 0x8, addend: 0x0, symName: __ZNSt3__115__move_backwardB7v160006INS_17_ClassicAlgPolicyEP5PointS3_S3_EENS_4pairIT0_T2_EES5_T1_S6_, symObjAddr: 0x6D30, symBinAddr: 0x10000A840, symSize: 0x40 }
  - { offsetInCU: 0xA5FB, offset: 0xA5FB, size: 0x8, addend: 0x0, symName: __ZNSt3__123__dispatch_copy_or_moveB7v160006INS_17_ClassicAlgPolicyENS_20__move_backward_loopIS1_EENS_23__move_backward_trivialEP5PointS6_S6_EENS_4pairIT2_T4_EES8_T3_S9_, symObjAddr: 0x6D70, symBinAddr: 0x10000A880, symSize: 0x40 }
  - { offsetInCU: 0xA679, offset: 0xA679, size: 0x8, addend: 0x0, symName: __ZNSt3__121__unwrap_and_dispatchB7v160006INS_10__overloadINS_20__move_backward_loopINS_17_ClassicAlgPolicyEEENS_23__move_backward_trivialEEEP5PointS8_S8_Li0EEENS_4pairIT0_T2_EESA_T1_SB_, symObjAddr: 0x6DB0, symBinAddr: 0x10000A8C0, symSize: 0xB0 }
  - { offsetInCU: 0xA708, offset: 0xA708, size: 0x8, addend: 0x0, symName: __ZNSt3__114__unwrap_rangeB7v160006IP5PointS2_EENS_4pairIT0_S4_EET_S6_, symObjAddr: 0x6E60, symBinAddr: 0x10000A970, symSize: 0x50 }
  - { offsetInCU: 0xA8CC, offset: 0xA8CC, size: 0x8, addend: 0x0, symName: __ZNSt3__113__unwrap_iterB7v160006IP5PointNS_18__unwrap_iter_implIS2_Lb1EEELi0EEEDTclsrT0_8__unwrapclsr3stdE7declvalIT_EEEES6_, symObjAddr: 0x6EF0, symBinAddr: 0x10000AA00, symSize: 0x20 }
  - { offsetInCU: 0xA910, offset: 0xA910, size: 0x8, addend: 0x0, symName: __ZNSt3__19make_pairB7v160006IP5PointS2_EENS_4pairINS_18__unwrap_ref_decayIT_E4typeENS4_IT0_E4typeEEEOS5_OS8_, symObjAddr: 0x6F10, symBinAddr: 0x10000AA20, symSize: 0x30 }
  - { offsetInCU: 0xA95F, offset: 0xA95F, size: 0x8, addend: 0x0, symName: __ZNSt3__114__rewrap_rangeB7v160006IP5PointS2_EET_S3_T0_, symObjAddr: 0x6F40, symBinAddr: 0x10000AA50, symSize: 0x30 }
  - { offsetInCU: 0xA9AB, offset: 0xA9AB, size: 0x8, addend: 0x0, symName: __ZNSt3__113__rewrap_iterB7v160006IP5PointS2_NS_18__unwrap_iter_implIS2_Lb1EEEEET_S5_T0_, symObjAddr: 0x6F70, symBinAddr: 0x10000AA80, symSize: 0x40 }
  - { offsetInCU: 0xAA00, offset: 0xAA00, size: 0x8, addend: 0x0, symName: __ZNSt3__128__copy_backward_trivial_implB7v160006I5PointS1_EENS_4pairIPT_PT0_EES4_S4_S6_, symObjAddr: 0x6FB0, symBinAddr: 0x10000AAC0, symSize: 0x80 }
  - { offsetInCU: 0xAA68, offset: 0xAA68, size: 0x8, addend: 0x0, symName: __ZNSt3__19make_pairB7v160006IRP5PointS3_EENS_4pairINS_18__unwrap_ref_decayIT_E4typeENS5_IT0_E4typeEEEOS6_OS9_, symObjAddr: 0x7030, symBinAddr: 0x10000AB40, symSize: 0x30 }
  - { offsetInCU: 0xAB0A, offset: 0xAB0A, size: 0x8, addend: 0x0, symName: __ZNSt3__14moveB7v160006IP5PointS2_EET0_T_S4_S3_, symObjAddr: 0x7190, symBinAddr: 0x10000ACA0, symSize: 0x40 }
  - { offsetInCU: 0xAB64, offset: 0xAB64, size: 0x8, addend: 0x0, symName: __ZNSt3__16__moveB7v160006INS_17_ClassicAlgPolicyEP5PointS3_S3_EENS_4pairIT0_T2_EES5_T1_S6_, symObjAddr: 0x7300, symBinAddr: 0x10000AE10, symSize: 0x40 }
  - { offsetInCU: 0xABD0, offset: 0xABD0, size: 0x8, addend: 0x0, symName: __ZNSt3__123__dispatch_copy_or_moveB7v160006INS_17_ClassicAlgPolicyENS_11__move_loopIS1_EENS_14__move_trivialEP5PointS6_S6_EENS_4pairIT2_T4_EES8_T3_S9_, symObjAddr: 0x7340, symBinAddr: 0x10000AE50, symSize: 0x40 }
  - { offsetInCU: 0xAC4E, offset: 0xAC4E, size: 0x8, addend: 0x0, symName: __ZNSt3__121__unwrap_and_dispatchB7v160006INS_10__overloadINS_11__move_loopINS_17_ClassicAlgPolicyEEENS_14__move_trivialEEEP5PointS8_S8_Li0EEENS_4pairIT0_T2_EESA_T1_SB_, symObjAddr: 0x7380, symBinAddr: 0x10000AE90, symSize: 0xB0 }
  - { offsetInCU: 0xAD23, offset: 0xAD23, size: 0x8, addend: 0x0, symName: __ZNSt3__119__copy_trivial_implB7v160006I5PointS1_EENS_4pairIPT_PT0_EES4_S4_S6_, symObjAddr: 0x7470, symBinAddr: 0x10000AF80, symSize: 0x70 }
  - { offsetInCU: 0xAD8B, offset: 0xAD8B, size: 0x8, addend: 0x0, symName: __ZNSt3__19make_pairB7v160006IRP5PointS2_EENS_4pairINS_18__unwrap_ref_decayIT_E4typeENS5_IT0_E4typeEEEOS6_OS9_, symObjAddr: 0x74E0, symBinAddr: 0x10000AFF0, symSize: 0x30 }
  - { offsetInCU: 0xADDA, offset: 0xADDA, size: 0x8, addend: 0x0, symName: __ZNSt3__18distanceB7v160006INS_13move_iteratorIP5PointEEEENS_15iterator_traitsIT_E15difference_typeES6_S6_, symObjAddr: 0x7570, symBinAddr: 0x10000B080, symSize: 0x40 }
  - { offsetInCU: 0xAE1D, offset: 0xAE1D, size: 0x8, addend: 0x0, symName: __ZNSt3__110__distanceB7v160006INS_13move_iteratorIP5PointEEEENS_15iterator_traitsIT_E15difference_typeES6_S6_NS_26random_access_iterator_tagE, symObjAddr: 0x7640, symBinAddr: 0x10000B150, symSize: 0x30 }
  - { offsetInCU: 0xAE6A, offset: 0xAE6A, size: 0x8, addend: 0x0, symName: __ZNSt3__1miB7v160006IP5PointS2_EEDTmicldtfp_4baseEcldtfp0_4baseEERKNS_13move_iteratorIT_EERKNS4_IT0_EE, symObjAddr: 0x7670, symBinAddr: 0x10000B180, symSize: 0x40 }
  - { offsetInCU: 0xAEB9, offset: 0xAEB9, size: 0x8, addend: 0x0, symName: __ZNSt3__142__uninitialized_allocator_move_if_noexceptB7v160006INS_9allocatorI5PointEEPS2_S4_S2_vEET1_RT_T0_S8_S5_, symObjAddr: 0x7750, symBinAddr: 0x10000B260, symSize: 0x30 }
  - { offsetInCU: 0xAF35, offset: 0xAF35, size: 0x8, addend: 0x0, symName: __ZNSt3__118__constexpr_strlenB7v160006EPKc, symObjAddr: 0x7A30, symBinAddr: 0x10000B540, symSize: 0x20 }
  - { offsetInCU: 0xAF61, offset: 0xAF61, size: 0x8, addend: 0x0, symName: __ZNSt3__1neB7v160006IP6MeteorEEbRKNS_11__wrap_iterIT_EES7_, symObjAddr: 0x7AF0, symBinAddr: 0x10000B600, symSize: 0x30 }
  - { offsetInCU: 0xAFA4, offset: 0xAFA4, size: 0x8, addend: 0x0, symName: __ZNSt3__1eqB7v160006IP6MeteorEEbRKNS_11__wrap_iterIT_EES7_, symObjAddr: 0x7BE0, symBinAddr: 0x10000B6F0, symSize: 0x40 }
  - { offsetInCU: 0xB380, offset: 0xB380, size: 0x8, addend: 0x0, symName: __ZSt28__throw_bad_array_new_lengthB7v160006v, symObjAddr: 0x1590, symBinAddr: 0x1000050A0, symSize: 0x40 }
  - { offsetInCU: 0xBA58, offset: 0xBA58, size: 0x8, addend: 0x0, symName: __ZNSt3__16vectorI5PointNS_9allocatorIS1_EEE26__swap_out_circular_bufferERNS_14__split_bufferIS1_RS3_EE, symObjAddr: 0xE50, symBinAddr: 0x100004960, symSize: 0x130 }
  - { offsetInCU: 0xBC86, offset: 0xBC86, size: 0x8, addend: 0x0, symName: __ZNSt3__16vectorI6MeteorNS_9allocatorIS1_EEE26__swap_out_circular_bufferERNS_14__split_bufferIS1_RS3_EE, symObjAddr: 0x3150, symBinAddr: 0x100006C60, symSize: 0x130 }
  - { offsetInCU: 0xBDF5, offset: 0xBDF5, size: 0x8, addend: 0x0, symName: __ZNSt3__16vectorI5PointNS_9allocatorIS1_EEE26__swap_out_circular_bufferERNS_14__split_bufferIS1_RS3_EEPS1_, symObjAddr: 0x6AE0, symBinAddr: 0x10000A5F0, symSize: 0x170 }
  - { offsetInCU: 0xE066, offset: 0xE066, size: 0x8, addend: 0x0, symName: _main, symObjAddr: 0x0, symBinAddr: 0x100003B10, symSize: 0x80 }
  - { offsetInCU: 0xE2AA, offset: 0xE2AA, size: 0x8, addend: 0x0, symName: __ZN4GameC1Eii, symObjAddr: 0x80, symBinAddr: 0x100003B90, symSize: 0x30 }
  - { offsetInCU: 0xE2F1, offset: 0xE2F1, size: 0x8, addend: 0x0, symName: __ZN4Game3runEv, symObjAddr: 0xB0, symBinAddr: 0x100003BC0, symSize: 0x250 }
  - { offsetInCU: 0xE334, offset: 0xE334, size: 0x8, addend: 0x0, symName: __ZN4GameD1Ev, symObjAddr: 0x300, symBinAddr: 0x100003E10, symSize: 0x20 }
  - { offsetInCU: 0xE35F, offset: 0xE35F, size: 0x8, addend: 0x0, symName: __ZN4GameC2Eii, symObjAddr: 0x320, symBinAddr: 0x100003E30, symSize: 0x160 }
  - { offsetInCU: 0xE3A6, offset: 0xE3A6, size: 0x8, addend: 0x0, symName: __ZN5SnakeC1Ei, symObjAddr: 0x480, symBinAddr: 0x100003F90, symSize: 0x30 }
  - { offsetInCU: 0xE3DD, offset: 0xE3DD, size: 0x8, addend: 0x0, symName: __ZN4FoodC1Ev, symObjAddr: 0x4B0, symBinAddr: 0x100003FC0, symSize: 0x20 }
  - { offsetInCU: 0xE406, offset: 0xE406, size: 0x8, addend: 0x0, symName: __ZNSt3__16vectorI6MeteorNS_9allocatorIS1_EEEC1B7v160006Ev, symObjAddr: 0x4D0, symBinAddr: 0x100003FE0, symSize: 0x20 }
  - { offsetInCU: 0xE42F, offset: 0xE42F, size: 0x8, addend: 0x0, symName: __ZN6PortalC1Ev, symObjAddr: 0x4F0, symBinAddr: 0x100004000, symSize: 0x20 }
  - { offsetInCU: 0xE458, offset: 0xE458, size: 0x8, addend: 0x0, symName: __ZN4Game15getTerminalSizeEv, symObjAddr: 0x510, symBinAddr: 0x100004020, symSize: 0x50 }
  - { offsetInCU: 0xE495, offset: 0xE495, size: 0x8, addend: 0x0, symName: __ZN5SnakeaSEOS_, symObjAddr: 0x560, symBinAddr: 0x100004070, symSize: 0x40 }
  - { offsetInCU: 0xE4C5, offset: 0xE4C5, size: 0x8, addend: 0x0, symName: __ZN5SnakeD1Ev, symObjAddr: 0x5A0, symBinAddr: 0x1000040B0, symSize: 0x20 }
  - { offsetInCU: 0xE4F0, offset: 0xE4F0, size: 0x8, addend: 0x0, symName: __ZN4Game15generateMeteorsEi, symObjAddr: 0x5C0, symBinAddr: 0x1000040D0, symSize: 0xF0 }
  - { offsetInCU: 0xE551, offset: 0xE551, size: 0x8, addend: 0x0, symName: __ZN4Game15generatePortalsEv, symObjAddr: 0x6B0, symBinAddr: 0x1000041C0, symSize: 0x90 }
  - { offsetInCU: 0xE576, offset: 0xE576, size: 0x8, addend: 0x0, symName: __ZNSt3__16vectorI6MeteorNS_9allocatorIS1_EEED1B7v160006Ev, symObjAddr: 0x740, symBinAddr: 0x100004250, symSize: 0x20 }
  - { offsetInCU: 0xE59F, offset: 0xE59F, size: 0x8, addend: 0x0, symName: __ZN5SnakeC2Ei, symObjAddr: 0x760, symBinAddr: 0x100004270, symSize: 0xB0 }
  - { offsetInCU: 0xE5F3, offset: 0xE5F3, size: 0x8, addend: 0x0, symName: __ZNSt3__16vectorI5PointNS_9allocatorIS1_EEEC1B7v160006Ev, symObjAddr: 0x810, symBinAddr: 0x100004320, symSize: 0x20 }
  - { offsetInCU: 0xE61B, offset: 0xE61B, size: 0x8, addend: 0x0, symName: __ZNSt3__16vectorI5PointNS_9allocatorIS1_EEE9push_backB7v160006EOS1_, symObjAddr: 0x830, symBinAddr: 0x100004340, symSize: 0x60 }
  - { offsetInCU: 0xE651, offset: 0xE651, size: 0x8, addend: 0x0, symName: __ZN5PointC1Eii, symObjAddr: 0x890, symBinAddr: 0x1000043A0, symSize: 0x30 }
  - { offsetInCU: 0xE696, offset: 0xE696, size: 0x8, addend: 0x0, symName: __ZNSt3__16vectorI5PointNS_9allocatorIS1_EEED1B7v160006Ev, symObjAddr: 0x8C0, symBinAddr: 0x1000043D0, symSize: 0x20 }
  - { offsetInCU: 0xE6BF, offset: 0xE6BF, size: 0x8, addend: 0x0, symName: __ZNSt3__16vectorI5PointNS_9allocatorIS1_EEEC2B7v160006Ev, symObjAddr: 0x8E0, symBinAddr: 0x1000043F0, symSize: 0x60 }
  - { offsetInCU: 0xE6F2, offset: 0xE6F2, size: 0x8, addend: 0x0, symName: __ZNSt3__117__compressed_pairIP5PointNS_9allocatorIS1_EEEC1B7v160006IDnNS_18__default_init_tagEEEOT_OT0_, symObjAddr: 0x940, symBinAddr: 0x100004450, symSize: 0x30 }
  - { offsetInCU: 0xE749, offset: 0xE749, size: 0x8, addend: 0x0, symName: __ZNSt3__117__compressed_pairIP5PointNS_9allocatorIS1_EEEC2B7v160006IDnNS_18__default_init_tagEEEOT_OT0_, symObjAddr: 0x990, symBinAddr: 0x1000044A0, symSize: 0x40 }
  - { offsetInCU: 0xE7A0, offset: 0xE7A0, size: 0x8, addend: 0x0, symName: __ZNSt3__122__compressed_pair_elemIP5PointLi0ELb0EEC2B7v160006IDnvEEOT_, symObjAddr: 0x9D0, symBinAddr: 0x1000044E0, symSize: 0x20 }
  - { offsetInCU: 0xE7E1, offset: 0xE7E1, size: 0x8, addend: 0x0, symName: __ZNSt3__122__compressed_pair_elemINS_9allocatorI5PointEELi1ELb1EEC2B7v160006ENS_18__default_init_tagE, symObjAddr: 0x9F0, symBinAddr: 0x100004500, symSize: 0x20 }
  - { offsetInCU: 0xE814, offset: 0xE814, size: 0x8, addend: 0x0, symName: __ZNSt3__19allocatorI5PointEC2B7v160006Ev, symObjAddr: 0xA10, symBinAddr: 0x100004520, symSize: 0x20 }
  - { offsetInCU: 0xE83D, offset: 0xE83D, size: 0x8, addend: 0x0, symName: __ZNSt3__116__non_trivial_ifILb1ENS_9allocatorI5PointEEEC2B7v160006Ev, symObjAddr: 0xA30, symBinAddr: 0x100004540, symSize: 0x10 }
  - { offsetInCU: 0xE866, offset: 0xE866, size: 0x8, addend: 0x0, symName: __ZNSt3__16vectorI5PointNS_9allocatorIS1_EEE9__end_capB7v160006Ev, symObjAddr: 0xA40, symBinAddr: 0x100004550, symSize: 0x20 }
  - { offsetInCU: 0xE88B, offset: 0xE88B, size: 0x8, addend: 0x0, symName: __ZNSt3__16vectorI5PointNS_9allocatorIS1_EEE22__construct_one_at_endB7v160006IJS1_EEEvDpOT_, symObjAddr: 0xA60, symBinAddr: 0x100004570, symSize: 0x90 }
  - { offsetInCU: 0xE8D8, offset: 0xE8D8, size: 0x8, addend: 0x0, symName: __ZNSt3__16vectorI5PointNS_9allocatorIS1_EEE21__push_back_slow_pathIS1_EEvOT_, symObjAddr: 0xAF0, symBinAddr: 0x100004600, symSize: 0xD0 }
  - { offsetInCU: 0xE935, offset: 0xE935, size: 0x8, addend: 0x0, symName: __ZNSt3__117__compressed_pairIP5PointNS_9allocatorIS1_EEE5firstB7v160006Ev, symObjAddr: 0xBC0, symBinAddr: 0x1000046D0, symSize: 0x20 }
  - { offsetInCU: 0xE95A, offset: 0xE95A, size: 0x8, addend: 0x0, symName: __ZNSt3__122__compressed_pair_elemIP5PointLi0ELb0EE5__getB7v160006Ev, symObjAddr: 0xBE0, symBinAddr: 0x1000046F0, symSize: 0x10 }
  - { offsetInCU: 0xE998, offset: 0xE998, size: 0x8, addend: 0x0, symName: __ZNSt3__16vectorI5PointNS_9allocatorIS1_EEE21_ConstructTransactionC1B7v160006ERS4_m, symObjAddr: 0xBF0, symBinAddr: 0x100004700, symSize: 0x30 }
  - { offsetInCU: 0xE9DF, offset: 0xE9DF, size: 0x8, addend: 0x0, symName: __ZNSt3__116allocator_traitsINS_9allocatorI5PointEEE9constructB7v160006IS2_JS2_EvEEvRS3_PT_DpOT0_, symObjAddr: 0xC20, symBinAddr: 0x100004730, symSize: 0x30 }
  - { offsetInCU: 0xEA36, offset: 0xEA36, size: 0x8, addend: 0x0, symName: __ZNSt3__16vectorI5PointNS_9allocatorIS1_EEE7__allocB7v160006Ev, symObjAddr: 0xC50, symBinAddr: 0x100004760, symSize: 0x20 }
  - { offsetInCU: 0xEA5B, offset: 0xEA5B, size: 0x8, addend: 0x0, symName: __ZNSt3__16vectorI5PointNS_9allocatorIS1_EEE21_ConstructTransactionD1B7v160006Ev, symObjAddr: 0xC80, symBinAddr: 0x100004790, symSize: 0x20 }
  - { offsetInCU: 0xEA84, offset: 0xEA84, size: 0x8, addend: 0x0, symName: __ZNSt3__16vectorI5PointNS_9allocatorIS1_EEE21_ConstructTransactionC2B7v160006ERS4_m, symObjAddr: 0xCA0, symBinAddr: 0x1000047B0, symSize: 0x40 }
  - { offsetInCU: 0xEACB, offset: 0xEACB, size: 0x8, addend: 0x0, symName: __ZNSt3__19allocatorI5PointE9constructB7v160006IS1_JS1_EEEvPT_DpOT0_, symObjAddr: 0xCE0, symBinAddr: 0x1000047F0, symSize: 0x20 }
  - { offsetInCU: 0xEB20, offset: 0xEB20, size: 0x8, addend: 0x0, symName: __ZNSt3__117__compressed_pairIP5PointNS_9allocatorIS1_EEE6secondB7v160006Ev, symObjAddr: 0xD00, symBinAddr: 0x100004810, symSize: 0x20 }
  - { offsetInCU: 0xEB45, offset: 0xEB45, size: 0x8, addend: 0x0, symName: __ZNSt3__122__compressed_pair_elemINS_9allocatorI5PointEELi1ELb1EE5__getB7v160006Ev, symObjAddr: 0xD20, symBinAddr: 0x100004830, symSize: 0x10 }
  - { offsetInCU: 0xEB6A, offset: 0xEB6A, size: 0x8, addend: 0x0, symName: __ZNSt3__16vectorI5PointNS_9allocatorIS1_EEE21_ConstructTransactionD2B7v160006Ev, symObjAddr: 0xD30, symBinAddr: 0x100004840, symSize: 0x20 }
  - { offsetInCU: 0xEB92, offset: 0xEB92, size: 0x8, addend: 0x0, symName: __ZNKSt3__16vectorI5PointNS_9allocatorIS1_EEE11__recommendB7v160006Em, symObjAddr: 0xD50, symBinAddr: 0x100004860, symSize: 0xA0 }
  - { offsetInCU: 0xEBE6, offset: 0xEBE6, size: 0x8, addend: 0x0, symName: __ZNKSt3__16vectorI5PointNS_9allocatorIS1_EEE4sizeB7v160006Ev, symObjAddr: 0xDF0, symBinAddr: 0x100004900, symSize: 0x20 }
  - { offsetInCU: 0xEC0B, offset: 0xEC0B, size: 0x8, addend: 0x0, symName: __ZNSt3__114__split_bufferI5PointRNS_9allocatorIS1_EEEC1EmmS4_, symObjAddr: 0xE10, symBinAddr: 0x100004920, symSize: 0x40 }
  - { offsetInCU: 0xEC60, offset: 0xEC60, size: 0x8, addend: 0x0, symName: __ZNSt3__114__split_bufferI5PointRNS_9allocatorIS1_EEED1Ev, symObjAddr: 0xF80, symBinAddr: 0x100004A90, symSize: 0x20 }
  - { offsetInCU: 0xEC8A, offset: 0xEC8A, size: 0x8, addend: 0x0, symName: __ZNKSt3__16vectorI5PointNS_9allocatorIS1_EEE8max_sizeEv, symObjAddr: 0xFA0, symBinAddr: 0x100004AB0, symSize: 0x60 }
  - { offsetInCU: 0xECB1, offset: 0xECB1, size: 0x8, addend: 0x0, symName: __ZNKSt3__16vectorI5PointNS_9allocatorIS1_EEE20__throw_length_errorB7v160006Ev, symObjAddr: 0x1000, symBinAddr: 0x100004B10, symSize: 0x20 }
  - { offsetInCU: 0xECD6, offset: 0xECD6, size: 0x8, addend: 0x0, symName: __ZNKSt3__16vectorI5PointNS_9allocatorIS1_EEE8capacityB7v160006Ev, symObjAddr: 0x1020, symBinAddr: 0x100004B30, symSize: 0x30 }
  - { offsetInCU: 0xED05, offset: 0xED05, size: 0x8, addend: 0x0, symName: __ZNSt3__116allocator_traitsINS_9allocatorI5PointEEE8max_sizeB7v160006IS3_vEEmRKS3_, symObjAddr: 0x10B0, symBinAddr: 0x100004BC0, symSize: 0x20 }
  - { offsetInCU: 0xED33, offset: 0xED33, size: 0x8, addend: 0x0, symName: __ZNKSt3__16vectorI5PointNS_9allocatorIS1_EEE7__allocB7v160006Ev, symObjAddr: 0x10D0, symBinAddr: 0x100004BE0, symSize: 0x20 }
  - { offsetInCU: 0xED58, offset: 0xED58, size: 0x8, addend: 0x0, symName: __ZNSt3__114numeric_limitsIlE3maxB7v160006Ev, symObjAddr: 0x10F0, symBinAddr: 0x100004C00, symSize: 0x10 }
  - { offsetInCU: 0xED80, offset: 0xED80, size: 0x8, addend: 0x0, symName: __ZNKSt3__16__lessImmEclB7v160006ERKmS3_, symObjAddr: 0x1150, symBinAddr: 0x100004C60, symSize: 0x30 }
  - { offsetInCU: 0xEDC1, offset: 0xEDC1, size: 0x8, addend: 0x0, symName: __ZNKSt3__19allocatorI5PointE8max_sizeB7v160006Ev, symObjAddr: 0x1180, symBinAddr: 0x100004C90, symSize: 0x20 }
  - { offsetInCU: 0xEDE6, offset: 0xEDE6, size: 0x8, addend: 0x0, symName: __ZNKSt3__117__compressed_pairIP5PointNS_9allocatorIS1_EEE6secondB7v160006Ev, symObjAddr: 0x11A0, symBinAddr: 0x100004CB0, symSize: 0x20 }
  - { offsetInCU: 0xEE0B, offset: 0xEE0B, size: 0x8, addend: 0x0, symName: __ZNKSt3__122__compressed_pair_elemINS_9allocatorI5PointEELi1ELb1EE5__getB7v160006Ev, symObjAddr: 0x11C0, symBinAddr: 0x100004CD0, symSize: 0x10 }
  - { offsetInCU: 0xEE30, offset: 0xEE30, size: 0x8, addend: 0x0, symName: __ZNSt3__123__libcpp_numeric_limitsIlLb1EE3maxB7v160006Ev, symObjAddr: 0x11D0, symBinAddr: 0x100004CE0, symSize: 0x10 }
  - { offsetInCU: 0xEE44, offset: 0xEE44, size: 0x8, addend: 0x0, symName: __ZNSt12length_errorC1B7v160006EPKc, symObjAddr: 0x1250, symBinAddr: 0x100004D60, symSize: 0x30 }
  - { offsetInCU: 0xEE7B, offset: 0xEE7B, size: 0x8, addend: 0x0, symName: __ZNSt12length_errorC2B7v160006EPKc, symObjAddr: 0x1280, symBinAddr: 0x100004D90, symSize: 0x40 }
  - { offsetInCU: 0xEEB2, offset: 0xEEB2, size: 0x8, addend: 0x0, symName: __ZNKSt3__16vectorI5PointNS_9allocatorIS1_EEE9__end_capB7v160006Ev, symObjAddr: 0x12C0, symBinAddr: 0x100004DD0, symSize: 0x20 }
  - { offsetInCU: 0xEED7, offset: 0xEED7, size: 0x8, addend: 0x0, symName: __ZNKSt3__117__compressed_pairIP5PointNS_9allocatorIS1_EEE5firstB7v160006Ev, symObjAddr: 0x12E0, symBinAddr: 0x100004DF0, symSize: 0x20 }
  - { offsetInCU: 0xEEFC, offset: 0xEEFC, size: 0x8, addend: 0x0, symName: __ZNKSt3__122__compressed_pair_elemIP5PointLi0ELb0EE5__getB7v160006Ev, symObjAddr: 0x1300, symBinAddr: 0x100004E10, symSize: 0x10 }
  - { offsetInCU: 0xEF21, offset: 0xEF21, size: 0x8, addend: 0x0, symName: __ZNSt3__114__split_bufferI5PointRNS_9allocatorIS1_EEEC2EmmS4_, symObjAddr: 0x1360, symBinAddr: 0x100004E70, symSize: 0xD0 }
  - { offsetInCU: 0xEF94, offset: 0xEF94, size: 0x8, addend: 0x0, symName: __ZNSt3__117__compressed_pairIP5PointRNS_9allocatorIS1_EEEC1B7v160006IDnS5_EEOT_OT0_, symObjAddr: 0x1430, symBinAddr: 0x100004F40, symSize: 0x30 }
  - { offsetInCU: 0xEFEB, offset: 0xEFEB, size: 0x8, addend: 0x0, symName: __ZNSt3__114__split_bufferI5PointRNS_9allocatorIS1_EEE7__allocB7v160006Ev, symObjAddr: 0x14A0, symBinAddr: 0x100004FB0, symSize: 0x20 }
  - { offsetInCU: 0xF010, offset: 0xF010, size: 0x8, addend: 0x0, symName: __ZNSt3__114__split_bufferI5PointRNS_9allocatorIS1_EEE9__end_capB7v160006Ev, symObjAddr: 0x14C0, symBinAddr: 0x100004FD0, symSize: 0x20 }
  - { offsetInCU: 0xF035, offset: 0xF035, size: 0x8, addend: 0x0, symName: __ZNSt3__117__compressed_pairIP5PointRNS_9allocatorIS1_EEEC2B7v160006IDnS5_EEOT_OT0_, symObjAddr: 0x14E0, symBinAddr: 0x100004FF0, symSize: 0x40 }
  - { offsetInCU: 0xF08C, offset: 0xF08C, size: 0x8, addend: 0x0, symName: __ZNSt3__122__compressed_pair_elemIRNS_9allocatorI5PointEELi1ELb0EEC2B7v160006IS4_vEEOT_, symObjAddr: 0x1520, symBinAddr: 0x100005030, symSize: 0x20 }
  - { offsetInCU: 0xF0CD, offset: 0xF0CD, size: 0x8, addend: 0x0, symName: __ZNSt3__19allocatorI5PointE8allocateB7v160006Em, symObjAddr: 0x1540, symBinAddr: 0x100005050, symSize: 0x50 }
  - { offsetInCU: 0xF100, offset: 0xF100, size: 0x8, addend: 0x0, symName: __ZNSt3__117__compressed_pairIP5PointRNS_9allocatorIS1_EEE6secondB7v160006Ev, symObjAddr: 0x1610, symBinAddr: 0x100005120, symSize: 0x20 }
  - { offsetInCU: 0xF125, offset: 0xF125, size: 0x8, addend: 0x0, symName: __ZNSt3__122__compressed_pair_elemIRNS_9allocatorI5PointEELi1ELb0EE5__getB7v160006Ev, symObjAddr: 0x1630, symBinAddr: 0x100005140, symSize: 0x20 }
  - { offsetInCU: 0xF14A, offset: 0xF14A, size: 0x8, addend: 0x0, symName: __ZNSt3__117__compressed_pairIP5PointRNS_9allocatorIS1_EEE5firstB7v160006Ev, symObjAddr: 0x1650, symBinAddr: 0x100005160, symSize: 0x20 }
  - { offsetInCU: 0xF16F, offset: 0xF16F, size: 0x8, addend: 0x0, symName: __ZNKSt3__16vectorI5PointNS_9allocatorIS1_EEE17__annotate_deleteB7v160006Ev, symObjAddr: 0x1670, symBinAddr: 0x100005180, symSize: 0xB0 }
  - { offsetInCU: 0xF194, offset: 0xF194, size: 0x8, addend: 0x0, symName: __ZNSt3__116reverse_iteratorIP5PointEC1B7v160006ES2_, symObjAddr: 0x1790, symBinAddr: 0x1000052A0, symSize: 0x30 }
  - { offsetInCU: 0xF1CB, offset: 0xF1CB, size: 0x8, addend: 0x0, symName: __ZNKSt3__116reverse_iteratorIP5PointE4baseB7v160006Ev, symObjAddr: 0x17C0, symBinAddr: 0x1000052D0, symSize: 0x20 }
  - { offsetInCU: 0xF1F0, offset: 0xF1F0, size: 0x8, addend: 0x0, symName: __ZNKSt3__16vectorI5PointNS_9allocatorIS1_EEE14__annotate_newB7v160006Em, symObjAddr: 0x1820, symBinAddr: 0x100005330, symSize: 0xB0 }
  - { offsetInCU: 0xF224, offset: 0xF224, size: 0x8, addend: 0x0, symName: __ZNKSt3__16vectorI5PointNS_9allocatorIS1_EEE31__annotate_contiguous_containerB7v160006EPKvS6_S6_S6_, symObjAddr: 0x18E0, symBinAddr: 0x1000053F0, symSize: 0x20 }
  - { offsetInCU: 0xF275, offset: 0xF275, size: 0x8, addend: 0x0, symName: __ZNKSt3__16vectorI5PointNS_9allocatorIS1_EEE4dataB7v160006Ev, symObjAddr: 0x1900, symBinAddr: 0x100005410, symSize: 0x20 }
  - { offsetInCU: 0xF2BD, offset: 0xF2BD, size: 0x8, addend: 0x0, symName: __ZNKSt3__111__move_loopINS_17_ClassicAlgPolicyEEclB7v160006INS_16reverse_iteratorIP5PointEES7_S7_EENS_4pairIT_T1_EES9_T0_SA_, symObjAddr: 0x1D60, symBinAddr: 0x100005870, symSize: 0xA0 }
  - { offsetInCU: 0xF327, offset: 0xF327, size: 0x8, addend: 0x0, symName: __ZNSt3__18_IterOpsINS_17_ClassicAlgPolicyEE11__iter_moveB7v160006IRNS_16reverse_iteratorIP5PointEEEENS_9enable_ifIXsr12is_referenceIDTdeclsr3stdE7declvalIRT_EEEEE5valueEDTclsr3stdE4movedeclsr3stdE7declvalISB_EEEEE4typeEOSA_, symObjAddr: 0x1F80, symBinAddr: 0x100005A90, symSize: 0x20 }
  - { offsetInCU: 0xF353, offset: 0xF353, size: 0x8, addend: 0x0, symName: __ZNKSt3__116reverse_iteratorIP5PointEdeB7v160006Ev, symObjAddr: 0x1FA0, symBinAddr: 0x100005AB0, symSize: 0x30 }
  - { offsetInCU: 0xF386, offset: 0xF386, size: 0x8, addend: 0x0, symName: __ZNSt3__116reverse_iteratorIP5PointEppB7v160006Ev, symObjAddr: 0x1FD0, symBinAddr: 0x100005AE0, symSize: 0x20 }
  - { offsetInCU: 0xF3AB, offset: 0xF3AB, size: 0x8, addend: 0x0, symName: __ZNSt3__18_IterOpsINS_17_ClassicAlgPolicyEE25__validate_iter_referenceB7v160006IRNS_16reverse_iteratorIP5PointEEEEvv, symObjAddr: 0x1FF0, symBinAddr: 0x100005B00, symSize: 0x10 }
  - { offsetInCU: 0xF3C9, offset: 0xF3C9, size: 0x8, addend: 0x0, symName: __ZNSt3__118__unwrap_iter_implINS_16reverse_iteratorIP5PointEELb0EE8__unwrapB7v160006ES4_, symObjAddr: 0x2000, symBinAddr: 0x100005B10, symSize: 0x20 }
  - { offsetInCU: 0xF3F1, offset: 0xF3F1, size: 0x8, addend: 0x0, symName: __ZNSt3__14pairINS_16reverse_iteratorIP5PointEES4_EC1B7v160006IS4_S4_LPv0EEEOT_OT0_, symObjAddr: 0x2020, symBinAddr: 0x100005B30, symSize: 0x30 }
  - { offsetInCU: 0xF44E, offset: 0xF44E, size: 0x8, addend: 0x0, symName: __ZNSt3__14pairINS_16reverse_iteratorIP5PointEES4_EC2B7v160006IS4_S4_LPv0EEEOT_OT0_, symObjAddr: 0x2050, symBinAddr: 0x100005B60, symSize: 0x40 }
  - { offsetInCU: 0xF4AB, offset: 0xF4AB, size: 0x8, addend: 0x0, symName: __ZNSt3__118__unwrap_iter_implINS_16reverse_iteratorIP5PointEELb0EE8__rewrapB7v160006ES4_S4_, symObjAddr: 0x2090, symBinAddr: 0x100005BA0, symSize: 0x30 }
  - { offsetInCU: 0xF4D8, offset: 0xF4D8, size: 0x8, addend: 0x0, symName: __ZNSt3__116reverse_iteratorIP5PointEC2B7v160006ES2_, symObjAddr: 0x20C0, symBinAddr: 0x100005BD0, symSize: 0x30 }
  - { offsetInCU: 0xF50F, offset: 0xF50F, size: 0x8, addend: 0x0, symName: __ZNSt3__114__split_bufferI5PointRNS_9allocatorIS1_EEED2Ev, symObjAddr: 0x20F0, symBinAddr: 0x100005C00, symSize: 0x70 }
  - { offsetInCU: 0xF53A, offset: 0xF53A, size: 0x8, addend: 0x0, symName: __ZNSt3__114__split_bufferI5PointRNS_9allocatorIS1_EEE5clearB7v160006Ev, symObjAddr: 0x2160, symBinAddr: 0x100005C70, symSize: 0x20 }
  - { offsetInCU: 0xF55F, offset: 0xF55F, size: 0x8, addend: 0x0, symName: __ZNSt3__116allocator_traitsINS_9allocatorI5PointEEE10deallocateB7v160006ERS3_PS2_m, symObjAddr: 0x2180, symBinAddr: 0x100005C90, symSize: 0x30 }
  - { offsetInCU: 0xF5A1, offset: 0xF5A1, size: 0x8, addend: 0x0, symName: __ZNKSt3__114__split_bufferI5PointRNS_9allocatorIS1_EEE8capacityB7v160006Ev, symObjAddr: 0x21B0, symBinAddr: 0x100005CC0, symSize: 0x30 }
  - { offsetInCU: 0xF5C6, offset: 0xF5C6, size: 0x8, addend: 0x0, symName: __ZNSt3__114__split_bufferI5PointRNS_9allocatorIS1_EEE17__destruct_at_endB7v160006EPS1_, symObjAddr: 0x21E0, symBinAddr: 0x100005CF0, symSize: 0x30 }
  - { offsetInCU: 0xF5F8, offset: 0xF5F8, size: 0x8, addend: 0x0, symName: __ZNSt3__114__split_bufferI5PointRNS_9allocatorIS1_EEE17__destruct_at_endB7v160006EPS1_NS_17integral_constantIbLb0EEE, symObjAddr: 0x2210, symBinAddr: 0x100005D20, symSize: 0x80 }
  - { offsetInCU: 0xF637, offset: 0xF637, size: 0x8, addend: 0x0, symName: __ZNSt3__116allocator_traitsINS_9allocatorI5PointEEE7destroyB7v160006IS2_vEEvRS3_PT_, symObjAddr: 0x2290, symBinAddr: 0x100005DA0, symSize: 0x30 }
  - { offsetInCU: 0xF674, offset: 0xF674, size: 0x8, addend: 0x0, symName: __ZNSt3__19allocatorI5PointE7destroyB7v160006EPS1_, symObjAddr: 0x22C0, symBinAddr: 0x100005DD0, symSize: 0x10 }
  - { offsetInCU: 0xF6A7, offset: 0xF6A7, size: 0x8, addend: 0x0, symName: __ZNSt3__19allocatorI5PointE10deallocateB7v160006EPS1_m, symObjAddr: 0x22D0, symBinAddr: 0x100005DE0, symSize: 0x40 }
  - { offsetInCU: 0xF6E8, offset: 0xF6E8, size: 0x8, addend: 0x0, symName: __ZNKSt3__114__split_bufferI5PointRNS_9allocatorIS1_EEE9__end_capB7v160006Ev, symObjAddr: 0x2380, symBinAddr: 0x100005E90, symSize: 0x20 }
  - { offsetInCU: 0xF70D, offset: 0xF70D, size: 0x8, addend: 0x0, symName: __ZNKSt3__117__compressed_pairIP5PointRNS_9allocatorIS1_EEE5firstB7v160006Ev, symObjAddr: 0x23A0, symBinAddr: 0x100005EB0, symSize: 0x20 }
  - { offsetInCU: 0xF732, offset: 0xF732, size: 0x8, addend: 0x0, symName: __ZN5PointC2Eii, symObjAddr: 0x23C0, symBinAddr: 0x100005ED0, symSize: 0x20 }
  - { offsetInCU: 0xF777, offset: 0xF777, size: 0x8, addend: 0x0, symName: __ZNSt3__16vectorI5PointNS_9allocatorIS1_EEED2B7v160006Ev, symObjAddr: 0x23E0, symBinAddr: 0x100005EF0, symSize: 0x40 }
  - { offsetInCU: 0xF7A0, offset: 0xF7A0, size: 0x8, addend: 0x0, symName: __ZNSt3__16vectorI5PointNS_9allocatorIS1_EEE16__destroy_vectorC1ERS4_, symObjAddr: 0x2420, symBinAddr: 0x100005F30, symSize: 0x30 }
  - { offsetInCU: 0xF7D8, offset: 0xF7D8, size: 0x8, addend: 0x0, symName: __ZNSt3__16vectorI5PointNS_9allocatorIS1_EEE16__destroy_vectorclB7v160006Ev, symObjAddr: 0x2450, symBinAddr: 0x100005F60, symSize: 0x90 }
  - { offsetInCU: 0xF7FD, offset: 0xF7FD, size: 0x8, addend: 0x0, symName: __ZNSt3__16vectorI5PointNS_9allocatorIS1_EEE16__destroy_vectorC2ERS4_, symObjAddr: 0x24E0, symBinAddr: 0x100005FF0, symSize: 0x20 }
  - { offsetInCU: 0xF835, offset: 0xF835, size: 0x8, addend: 0x0, symName: __ZNSt3__16vectorI5PointNS_9allocatorIS1_EEE7__clearB7v160006Ev, symObjAddr: 0x2510, symBinAddr: 0x100006020, symSize: 0x20 }
  - { offsetInCU: 0xF85A, offset: 0xF85A, size: 0x8, addend: 0x0, symName: __ZNSt3__16vectorI5PointNS_9allocatorIS1_EEE22__base_destruct_at_endB7v160006EPS1_, symObjAddr: 0x2530, symBinAddr: 0x100006040, symSize: 0x80 }
  - { offsetInCU: 0xF89D, offset: 0xF89D, size: 0x8, addend: 0x0, symName: __ZN4FoodC2Ev, symObjAddr: 0x25B0, symBinAddr: 0x1000060C0, symSize: 0x30 }
  - { offsetInCU: 0xF8C6, offset: 0xF8C6, size: 0x8, addend: 0x0, symName: __ZNSt3__16vectorI6MeteorNS_9allocatorIS1_EEEC2B7v160006Ev, symObjAddr: 0x25E0, symBinAddr: 0x1000060F0, symSize: 0x60 }
  - { offsetInCU: 0xF8EF, offset: 0xF8EF, size: 0x8, addend: 0x0, symName: __ZNSt3__117__compressed_pairIP6MeteorNS_9allocatorIS1_EEEC1B7v160006IDnNS_18__default_init_tagEEEOT_OT0_, symObjAddr: 0x2640, symBinAddr: 0x100006150, symSize: 0x30 }
  - { offsetInCU: 0xF946, offset: 0xF946, size: 0x8, addend: 0x0, symName: __ZNSt3__117__compressed_pairIP6MeteorNS_9allocatorIS1_EEEC2B7v160006IDnNS_18__default_init_tagEEEOT_OT0_, symObjAddr: 0x2680, symBinAddr: 0x100006190, symSize: 0x40 }
  - { offsetInCU: 0xF99D, offset: 0xF99D, size: 0x8, addend: 0x0, symName: __ZNSt3__122__compressed_pair_elemIP6MeteorLi0ELb0EEC2B7v160006IDnvEEOT_, symObjAddr: 0x26C0, symBinAddr: 0x1000061D0, symSize: 0x20 }
  - { offsetInCU: 0xF9DE, offset: 0xF9DE, size: 0x8, addend: 0x0, symName: __ZNSt3__122__compressed_pair_elemINS_9allocatorI6MeteorEELi1ELb1EEC2B7v160006ENS_18__default_init_tagE, symObjAddr: 0x26E0, symBinAddr: 0x1000061F0, symSize: 0x20 }
  - { offsetInCU: 0xFA11, offset: 0xFA11, size: 0x8, addend: 0x0, symName: __ZNSt3__19allocatorI6MeteorEC2B7v160006Ev, symObjAddr: 0x2700, symBinAddr: 0x100006210, symSize: 0x20 }
  - { offsetInCU: 0xFA3A, offset: 0xFA3A, size: 0x8, addend: 0x0, symName: __ZNSt3__116__non_trivial_ifILb1ENS_9allocatorI6MeteorEEEC2B7v160006Ev, symObjAddr: 0x2720, symBinAddr: 0x100006230, symSize: 0x10 }
  - { offsetInCU: 0xFA63, offset: 0xFA63, size: 0x8, addend: 0x0, symName: __ZN6PortalC2Ev, symObjAddr: 0x2730, symBinAddr: 0x100006240, symSize: 0x30 }
  - { offsetInCU: 0xFA8B, offset: 0xFA8B, size: 0x8, addend: 0x0, symName: __ZNSt3__16vectorI5PointNS_9allocatorIS1_EEEaSB7v160006EOS4_, symObjAddr: 0x2760, symBinAddr: 0x100006270, symSize: 0x30 }
  - { offsetInCU: 0xFAC0, offset: 0xFAC0, size: 0x8, addend: 0x0, symName: __ZNSt3__16vectorI5PointNS_9allocatorIS1_EEE13__move_assignERS4_NS_17integral_constantIbLb1EEE, symObjAddr: 0x2790, symBinAddr: 0x1000062A0, symSize: 0xB0 }
  - { offsetInCU: 0xFB00, offset: 0xFB00, size: 0x8, addend: 0x0, symName: __ZNSt3__16vectorI5PointNS_9allocatorIS1_EEE13__vdeallocateEv, symObjAddr: 0x2840, symBinAddr: 0x100006350, symSize: 0x80 }
  - { offsetInCU: 0xFB27, offset: 0xFB27, size: 0x8, addend: 0x0, symName: __ZNSt3__16vectorI5PointNS_9allocatorIS1_EEE19__move_assign_allocB7v160006ERS4_, symObjAddr: 0x28C0, symBinAddr: 0x1000063D0, symSize: 0x30 }
  - { offsetInCU: 0xFB5B, offset: 0xFB5B, size: 0x8, addend: 0x0, symName: __ZNSt3__16vectorI5PointNS_9allocatorIS1_EEE5clearB7v160006Ev, symObjAddr: 0x2900, symBinAddr: 0x100006410, symSize: 0x50 }
  - { offsetInCU: 0xFB8F, offset: 0xFB8F, size: 0x8, addend: 0x0, symName: __ZNKSt3__16vectorI5PointNS_9allocatorIS1_EEE17__annotate_shrinkB7v160006Em, symObjAddr: 0x2950, symBinAddr: 0x100006460, symSize: 0xA0 }
  - { offsetInCU: 0xFBC3, offset: 0xFBC3, size: 0x8, addend: 0x0, symName: __ZNSt3__16vectorI5PointNS_9allocatorIS1_EEE19__move_assign_allocB7v160006ERS4_NS_17integral_constantIbLb1EEE, symObjAddr: 0x29F0, symBinAddr: 0x100006500, symSize: 0x30 }
  - { offsetInCU: 0xFC02, offset: 0xFC02, size: 0x8, addend: 0x0, symName: __ZN5SnakeD2Ev, symObjAddr: 0x2A20, symBinAddr: 0x100006530, symSize: 0x20 }
  - { offsetInCU: 0xFC2D, offset: 0xFC2D, size: 0x8, addend: 0x0, symName: __ZNKSt3__16vectorI6MeteorNS_9allocatorIS1_EEE4sizeB7v160006Ev, symObjAddr: 0x2A40, symBinAddr: 0x100006550, symSize: 0x20 }
  - { offsetInCU: 0xFC52, offset: 0xFC52, size: 0x8, addend: 0x0, symName: __ZNK4Game15isSnakePositionEii, symObjAddr: 0x2A60, symBinAddr: 0x100006570, symSize: 0xB0 }
  - { offsetInCU: 0xFCE8, offset: 0xFCE8, size: 0x8, addend: 0x0, symName: __ZNSt3__16vectorI6MeteorNS_9allocatorIS1_EEE9push_backB7v160006EOS1_, symObjAddr: 0x2B10, symBinAddr: 0x100006620, symSize: 0x60 }
  - { offsetInCU: 0xFD1E, offset: 0xFD1E, size: 0x8, addend: 0x0, symName: __ZN6MeteorC1Eii, symObjAddr: 0x2B70, symBinAddr: 0x100006680, symSize: 0x30 }
  - { offsetInCU: 0xFD63, offset: 0xFD63, size: 0x8, addend: 0x0, symName: __ZNK5Snake7getBodyEv, symObjAddr: 0x2BA0, symBinAddr: 0x1000066B0, symSize: 0x10 }
  - { offsetInCU: 0xFD87, offset: 0xFD87, size: 0x8, addend: 0x0, symName: __ZNKSt3__16vectorI5PointNS_9allocatorIS1_EEE5beginB7v160006Ev, symObjAddr: 0x2BB0, symBinAddr: 0x1000066C0, symSize: 0x30 }
  - { offsetInCU: 0xFDAD, offset: 0xFDAD, size: 0x8, addend: 0x0, symName: __ZNKSt3__16vectorI5PointNS_9allocatorIS1_EEE3endB7v160006Ev, symObjAddr: 0x2BE0, symBinAddr: 0x1000066F0, symSize: 0x30 }
  - { offsetInCU: 0xFDD4, offset: 0xFDD4, size: 0x8, addend: 0x0, symName: __ZNKSt3__111__wrap_iterIPK5PointEdeB7v160006Ev, symObjAddr: 0x2C40, symBinAddr: 0x100006750, symSize: 0x20 }
  - { offsetInCU: 0xFDF9, offset: 0xFDF9, size: 0x8, addend: 0x0, symName: __ZNSt3__111__wrap_iterIPK5PointEppB7v160006Ev, symObjAddr: 0x2C60, symBinAddr: 0x100006770, symSize: 0x20 }
  - { offsetInCU: 0xFE1E, offset: 0xFE1E, size: 0x8, addend: 0x0, symName: __ZNKSt3__16vectorI5PointNS_9allocatorIS1_EEE11__make_iterB7v160006EPKS1_, symObjAddr: 0x2C80, symBinAddr: 0x100006790, symSize: 0x30 }
  - { offsetInCU: 0xFE52, offset: 0xFE52, size: 0x8, addend: 0x0, symName: __ZNSt3__111__wrap_iterIPK5PointEC1B7v160006EPKvS3_, symObjAddr: 0x2CB0, symBinAddr: 0x1000067C0, symSize: 0x30 }
  - { offsetInCU: 0xFE97, offset: 0xFE97, size: 0x8, addend: 0x0, symName: __ZNSt3__111__wrap_iterIPK5PointEC2B7v160006EPKvS3_, symObjAddr: 0x2CE0, symBinAddr: 0x1000067F0, symSize: 0x20 }
  - { offsetInCU: 0xFEDC, offset: 0xFEDC, size: 0x8, addend: 0x0, symName: __ZNKSt3__111__wrap_iterIPK5PointE4baseB7v160006Ev, symObjAddr: 0x2D40, symBinAddr: 0x100006850, symSize: 0x20 }
  - { offsetInCU: 0xFF01, offset: 0xFF01, size: 0x8, addend: 0x0, symName: __ZNSt3__16vectorI6MeteorNS_9allocatorIS1_EEE9__end_capB7v160006Ev, symObjAddr: 0x2D60, symBinAddr: 0x100006870, symSize: 0x20 }
  - { offsetInCU: 0xFF2B, offset: 0xFF2B, size: 0x8, addend: 0x0, symName: __ZNSt3__16vectorI6MeteorNS_9allocatorIS1_EEE22__construct_one_at_endB7v160006IJS1_EEEvDpOT_, symObjAddr: 0x2D80, symBinAddr: 0x100006890, symSize: 0x90 }
  - { offsetInCU: 0xFF78, offset: 0xFF78, size: 0x8, addend: 0x0, symName: __ZNSt3__16vectorI6MeteorNS_9allocatorIS1_EEE21__push_back_slow_pathIS1_EEvOT_, symObjAddr: 0x2E10, symBinAddr: 0x100006920, symSize: 0xD0 }
  - { offsetInCU: 0xFFD5, offset: 0xFFD5, size: 0x8, addend: 0x0, symName: __ZNSt3__117__compressed_pairIP6MeteorNS_9allocatorIS1_EEE5firstB7v160006Ev, symObjAddr: 0x2EE0, symBinAddr: 0x1000069F0, symSize: 0x20 }
  - { offsetInCU: 0xFFFA, offset: 0xFFFA, size: 0x8, addend: 0x0, symName: __ZNSt3__122__compressed_pair_elemIP6MeteorLi0ELb0EE5__getB7v160006Ev, symObjAddr: 0x2F00, symBinAddr: 0x100006A10, symSize: 0x10 }
  - { offsetInCU: 0x10038, offset: 0x10038, size: 0x8, addend: 0x0, symName: __ZNSt3__16vectorI6MeteorNS_9allocatorIS1_EEE21_ConstructTransactionC1B7v160006ERS4_m, symObjAddr: 0x2F10, symBinAddr: 0x100006A20, symSize: 0x30 }
  - { offsetInCU: 0x1007F, offset: 0x1007F, size: 0x8, addend: 0x0, symName: __ZNSt3__116allocator_traitsINS_9allocatorI6MeteorEEE9constructB7v160006IS2_JS2_EvEEvRS3_PT_DpOT0_, symObjAddr: 0x2F40, symBinAddr: 0x100006A50, symSize: 0x30 }
  - { offsetInCU: 0x100D6, offset: 0x100D6, size: 0x8, addend: 0x0, symName: __ZNSt3__16vectorI6MeteorNS_9allocatorIS1_EEE7__allocB7v160006Ev, symObjAddr: 0x2F70, symBinAddr: 0x100006A80, symSize: 0x20 }
  - { offsetInCU: 0x100FB, offset: 0x100FB, size: 0x8, addend: 0x0, symName: __ZNSt3__16vectorI6MeteorNS_9allocatorIS1_EEE21_ConstructTransactionD1B7v160006Ev, symObjAddr: 0x2FA0, symBinAddr: 0x100006AB0, symSize: 0x20 }
  - { offsetInCU: 0x10124, offset: 0x10124, size: 0x8, addend: 0x0, symName: __ZNSt3__16vectorI6MeteorNS_9allocatorIS1_EEE21_ConstructTransactionC2B7v160006ERS4_m, symObjAddr: 0x2FC0, symBinAddr: 0x100006AD0, symSize: 0x40 }
  - { offsetInCU: 0x1016B, offset: 0x1016B, size: 0x8, addend: 0x0, symName: __ZNSt3__19allocatorI6MeteorE9constructB7v160006IS1_JS1_EEEvPT_DpOT0_, symObjAddr: 0x3000, symBinAddr: 0x100006B10, symSize: 0x20 }
  - { offsetInCU: 0x101C0, offset: 0x101C0, size: 0x8, addend: 0x0, symName: __ZNSt3__117__compressed_pairIP6MeteorNS_9allocatorIS1_EEE6secondB7v160006Ev, symObjAddr: 0x3020, symBinAddr: 0x100006B30, symSize: 0x20 }
  - { offsetInCU: 0x101E5, offset: 0x101E5, size: 0x8, addend: 0x0, symName: __ZNSt3__122__compressed_pair_elemINS_9allocatorI6MeteorEELi1ELb1EE5__getB7v160006Ev, symObjAddr: 0x3040, symBinAddr: 0x100006B50, symSize: 0x10 }
  - { offsetInCU: 0x1020A, offset: 0x1020A, size: 0x8, addend: 0x0, symName: __ZNSt3__16vectorI6MeteorNS_9allocatorIS1_EEE21_ConstructTransactionD2B7v160006Ev, symObjAddr: 0x3050, symBinAddr: 0x100006B60, symSize: 0x20 }
  - { offsetInCU: 0x10232, offset: 0x10232, size: 0x8, addend: 0x0, symName: __ZNKSt3__16vectorI6MeteorNS_9allocatorIS1_EEE11__recommendB7v160006Em, symObjAddr: 0x3070, symBinAddr: 0x100006B80, symSize: 0xA0 }
  - { offsetInCU: 0x10286, offset: 0x10286, size: 0x8, addend: 0x0, symName: __ZNSt3__114__split_bufferI6MeteorRNS_9allocatorIS1_EEEC1EmmS4_, symObjAddr: 0x3110, symBinAddr: 0x100006C20, symSize: 0x40 }
  - { offsetInCU: 0x102DB, offset: 0x102DB, size: 0x8, addend: 0x0, symName: __ZNSt3__114__split_bufferI6MeteorRNS_9allocatorIS1_EEED1Ev, symObjAddr: 0x3280, symBinAddr: 0x100006D90, symSize: 0x20 }
  - { offsetInCU: 0x10305, offset: 0x10305, size: 0x8, addend: 0x0, symName: __ZNKSt3__16vectorI6MeteorNS_9allocatorIS1_EEE8max_sizeEv, symObjAddr: 0x32A0, symBinAddr: 0x100006DB0, symSize: 0x60 }
  - { offsetInCU: 0x1032C, offset: 0x1032C, size: 0x8, addend: 0x0, symName: __ZNKSt3__16vectorI6MeteorNS_9allocatorIS1_EEE20__throw_length_errorB7v160006Ev, symObjAddr: 0x3300, symBinAddr: 0x100006E10, symSize: 0x20 }
  - { offsetInCU: 0x10351, offset: 0x10351, size: 0x8, addend: 0x0, symName: __ZNKSt3__16vectorI6MeteorNS_9allocatorIS1_EEE8capacityB7v160006Ev, symObjAddr: 0x3320, symBinAddr: 0x100006E30, symSize: 0x30 }
  - { offsetInCU: 0x10380, offset: 0x10380, size: 0x8, addend: 0x0, symName: __ZNSt3__116allocator_traitsINS_9allocatorI6MeteorEEE8max_sizeB7v160006IS3_vEEmRKS3_, symObjAddr: 0x3350, symBinAddr: 0x100006E60, symSize: 0x20 }
  - { offsetInCU: 0x103AE, offset: 0x103AE, size: 0x8, addend: 0x0, symName: __ZNKSt3__16vectorI6MeteorNS_9allocatorIS1_EEE7__allocB7v160006Ev, symObjAddr: 0x3370, symBinAddr: 0x100006E80, symSize: 0x20 }
  - { offsetInCU: 0x103D3, offset: 0x103D3, size: 0x8, addend: 0x0, symName: __ZNKSt3__19allocatorI6MeteorE8max_sizeB7v160006Ev, symObjAddr: 0x3390, symBinAddr: 0x100006EA0, symSize: 0x20 }
  - { offsetInCU: 0x103F8, offset: 0x103F8, size: 0x8, addend: 0x0, symName: __ZNKSt3__117__compressed_pairIP6MeteorNS_9allocatorIS1_EEE6secondB7v160006Ev, symObjAddr: 0x33B0, symBinAddr: 0x100006EC0, symSize: 0x20 }
  - { offsetInCU: 0x1041D, offset: 0x1041D, size: 0x8, addend: 0x0, symName: __ZNKSt3__122__compressed_pair_elemINS_9allocatorI6MeteorEELi1ELb1EE5__getB7v160006Ev, symObjAddr: 0x33D0, symBinAddr: 0x100006EE0, symSize: 0x10 }
  - { offsetInCU: 0x10442, offset: 0x10442, size: 0x8, addend: 0x0, symName: __ZNKSt3__16vectorI6MeteorNS_9allocatorIS1_EEE9__end_capB7v160006Ev, symObjAddr: 0x33E0, symBinAddr: 0x100006EF0, symSize: 0x20 }
  - { offsetInCU: 0x10467, offset: 0x10467, size: 0x8, addend: 0x0, symName: __ZNKSt3__117__compressed_pairIP6MeteorNS_9allocatorIS1_EEE5firstB7v160006Ev, symObjAddr: 0x3400, symBinAddr: 0x100006F10, symSize: 0x20 }
  - { offsetInCU: 0x1048C, offset: 0x1048C, size: 0x8, addend: 0x0, symName: __ZNKSt3__122__compressed_pair_elemIP6MeteorLi0ELb0EE5__getB7v160006Ev, symObjAddr: 0x3420, symBinAddr: 0x100006F30, symSize: 0x10 }
  - { offsetInCU: 0x104B1, offset: 0x104B1, size: 0x8, addend: 0x0, symName: __ZNSt3__114__split_bufferI6MeteorRNS_9allocatorIS1_EEEC2EmmS4_, symObjAddr: 0x3430, symBinAddr: 0x100006F40, symSize: 0xD0 }
  - { offsetInCU: 0x10524, offset: 0x10524, size: 0x8, addend: 0x0, symName: __ZNSt3__117__compressed_pairIP6MeteorRNS_9allocatorIS1_EEEC1B7v160006IDnS5_EEOT_OT0_, symObjAddr: 0x3500, symBinAddr: 0x100007010, symSize: 0x30 }
  - { offsetInCU: 0x1057B, offset: 0x1057B, size: 0x8, addend: 0x0, symName: __ZNSt3__114__split_bufferI6MeteorRNS_9allocatorIS1_EEE7__allocB7v160006Ev, symObjAddr: 0x3570, symBinAddr: 0x100007080, symSize: 0x20 }
  - { offsetInCU: 0x105A0, offset: 0x105A0, size: 0x8, addend: 0x0, symName: __ZNSt3__114__split_bufferI6MeteorRNS_9allocatorIS1_EEE9__end_capB7v160006Ev, symObjAddr: 0x3590, symBinAddr: 0x1000070A0, symSize: 0x20 }
  - { offsetInCU: 0x105C5, offset: 0x105C5, size: 0x8, addend: 0x0, symName: __ZNSt3__117__compressed_pairIP6MeteorRNS_9allocatorIS1_EEEC2B7v160006IDnS5_EEOT_OT0_, symObjAddr: 0x35B0, symBinAddr: 0x1000070C0, symSize: 0x40 }
  - { offsetInCU: 0x1061C, offset: 0x1061C, size: 0x8, addend: 0x0, symName: __ZNSt3__122__compressed_pair_elemIRNS_9allocatorI6MeteorEELi1ELb0EEC2B7v160006IS4_vEEOT_, symObjAddr: 0x35F0, symBinAddr: 0x100007100, symSize: 0x20 }
  - { offsetInCU: 0x1065D, offset: 0x1065D, size: 0x8, addend: 0x0, symName: __ZNSt3__19allocatorI6MeteorE8allocateB7v160006Em, symObjAddr: 0x3610, symBinAddr: 0x100007120, symSize: 0x50 }
  - { offsetInCU: 0x10690, offset: 0x10690, size: 0x8, addend: 0x0, symName: __ZNSt3__117__compressed_pairIP6MeteorRNS_9allocatorIS1_EEE6secondB7v160006Ev, symObjAddr: 0x3660, symBinAddr: 0x100007170, symSize: 0x20 }
  - { offsetInCU: 0x106B5, offset: 0x106B5, size: 0x8, addend: 0x0, symName: __ZNSt3__122__compressed_pair_elemIRNS_9allocatorI6MeteorEELi1ELb0EE5__getB7v160006Ev, symObjAddr: 0x3680, symBinAddr: 0x100007190, symSize: 0x20 }
  - { offsetInCU: 0x106DA, offset: 0x106DA, size: 0x8, addend: 0x0, symName: __ZNSt3__117__compressed_pairIP6MeteorRNS_9allocatorIS1_EEE5firstB7v160006Ev, symObjAddr: 0x36A0, symBinAddr: 0x1000071B0, symSize: 0x20 }
  - { offsetInCU: 0x106FF, offset: 0x106FF, size: 0x8, addend: 0x0, symName: __ZNKSt3__16vectorI6MeteorNS_9allocatorIS1_EEE17__annotate_deleteB7v160006Ev, symObjAddr: 0x36C0, symBinAddr: 0x1000071D0, symSize: 0xB0 }
  - { offsetInCU: 0x10724, offset: 0x10724, size: 0x8, addend: 0x0, symName: __ZNSt3__116reverse_iteratorIP6MeteorEC1B7v160006ES2_, symObjAddr: 0x37E0, symBinAddr: 0x1000072F0, symSize: 0x30 }
  - { offsetInCU: 0x1075B, offset: 0x1075B, size: 0x8, addend: 0x0, symName: __ZNKSt3__116reverse_iteratorIP6MeteorE4baseB7v160006Ev, symObjAddr: 0x3810, symBinAddr: 0x100007320, symSize: 0x20 }
  - { offsetInCU: 0x10780, offset: 0x10780, size: 0x8, addend: 0x0, symName: __ZNKSt3__16vectorI6MeteorNS_9allocatorIS1_EEE14__annotate_newB7v160006Em, symObjAddr: 0x3870, symBinAddr: 0x100007380, symSize: 0xB0 }
  - { offsetInCU: 0x107B4, offset: 0x107B4, size: 0x8, addend: 0x0, symName: __ZNKSt3__16vectorI6MeteorNS_9allocatorIS1_EEE31__annotate_contiguous_containerB7v160006EPKvS6_S6_S6_, symObjAddr: 0x3930, symBinAddr: 0x100007440, symSize: 0x20 }
  - { offsetInCU: 0x10805, offset: 0x10805, size: 0x8, addend: 0x0, symName: __ZNKSt3__16vectorI6MeteorNS_9allocatorIS1_EEE4dataB7v160006Ev, symObjAddr: 0x3950, symBinAddr: 0x100007460, symSize: 0x20 }
  - { offsetInCU: 0x10843, offset: 0x10843, size: 0x8, addend: 0x0, symName: __ZNKSt3__111__move_loopINS_17_ClassicAlgPolicyEEclB7v160006INS_16reverse_iteratorIP6MeteorEES7_S7_EENS_4pairIT_T1_EES9_T0_SA_, symObjAddr: 0x3DB0, symBinAddr: 0x1000078C0, symSize: 0xA0 }
  - { offsetInCU: 0x108AD, offset: 0x108AD, size: 0x8, addend: 0x0, symName: __ZNSt3__18_IterOpsINS_17_ClassicAlgPolicyEE11__iter_moveB7v160006IRNS_16reverse_iteratorIP6MeteorEEEENS_9enable_ifIXsr12is_referenceIDTdeclsr3stdE7declvalIRT_EEEEE5valueEDTclsr3stdE4movedeclsr3stdE7declvalISB_EEEEE4typeEOSA_, symObjAddr: 0x3FD0, symBinAddr: 0x100007AE0, symSize: 0x20 }
  - { offsetInCU: 0x108D9, offset: 0x108D9, size: 0x8, addend: 0x0, symName: __ZNKSt3__116reverse_iteratorIP6MeteorEdeB7v160006Ev, symObjAddr: 0x3FF0, symBinAddr: 0x100007B00, symSize: 0x30 }
  - { offsetInCU: 0x1090C, offset: 0x1090C, size: 0x8, addend: 0x0, symName: __ZNSt3__116reverse_iteratorIP6MeteorEppB7v160006Ev, symObjAddr: 0x4020, symBinAddr: 0x100007B30, symSize: 0x20 }
  - { offsetInCU: 0x10931, offset: 0x10931, size: 0x8, addend: 0x0, symName: __ZNSt3__18_IterOpsINS_17_ClassicAlgPolicyEE25__validate_iter_referenceB7v160006IRNS_16reverse_iteratorIP6MeteorEEEEvv, symObjAddr: 0x4040, symBinAddr: 0x100007B50, symSize: 0x10 }
  - { offsetInCU: 0x1094F, offset: 0x1094F, size: 0x8, addend: 0x0, symName: __ZNSt3__118__unwrap_iter_implINS_16reverse_iteratorIP6MeteorEELb0EE8__unwrapB7v160006ES4_, symObjAddr: 0x4050, symBinAddr: 0x100007B60, symSize: 0x20 }
  - { offsetInCU: 0x10977, offset: 0x10977, size: 0x8, addend: 0x0, symName: __ZNSt3__14pairINS_16reverse_iteratorIP6MeteorEES4_EC1B7v160006IS4_S4_LPv0EEEOT_OT0_, symObjAddr: 0x4070, symBinAddr: 0x100007B80, symSize: 0x30 }
  - { offsetInCU: 0x109D4, offset: 0x109D4, size: 0x8, addend: 0x0, symName: __ZNSt3__14pairINS_16reverse_iteratorIP6MeteorEES4_EC2B7v160006IS4_S4_LPv0EEEOT_OT0_, symObjAddr: 0x40A0, symBinAddr: 0x100007BB0, symSize: 0x40 }
  - { offsetInCU: 0x10A31, offset: 0x10A31, size: 0x8, addend: 0x0, symName: __ZNSt3__118__unwrap_iter_implINS_16reverse_iteratorIP6MeteorEELb0EE8__rewrapB7v160006ES4_S4_, symObjAddr: 0x40E0, symBinAddr: 0x100007BF0, symSize: 0x30 }
  - { offsetInCU: 0x10A5E, offset: 0x10A5E, size: 0x8, addend: 0x0, symName: __ZNSt3__116reverse_iteratorIP6MeteorEC2B7v160006ES2_, symObjAddr: 0x4110, symBinAddr: 0x100007C20, symSize: 0x30 }
  - { offsetInCU: 0x10A95, offset: 0x10A95, size: 0x8, addend: 0x0, symName: __ZNSt3__114__split_bufferI6MeteorRNS_9allocatorIS1_EEED2Ev, symObjAddr: 0x4140, symBinAddr: 0x100007C50, symSize: 0x70 }
  - { offsetInCU: 0x10AC0, offset: 0x10AC0, size: 0x8, addend: 0x0, symName: __ZNSt3__114__split_bufferI6MeteorRNS_9allocatorIS1_EEE5clearB7v160006Ev, symObjAddr: 0x41B0, symBinAddr: 0x100007CC0, symSize: 0x20 }
  - { offsetInCU: 0x10AE5, offset: 0x10AE5, size: 0x8, addend: 0x0, symName: __ZNSt3__116allocator_traitsINS_9allocatorI6MeteorEEE10deallocateB7v160006ERS3_PS2_m, symObjAddr: 0x41D0, symBinAddr: 0x100007CE0, symSize: 0x30 }
  - { offsetInCU: 0x10B27, offset: 0x10B27, size: 0x8, addend: 0x0, symName: __ZNKSt3__114__split_bufferI6MeteorRNS_9allocatorIS1_EEE8capacityB7v160006Ev, symObjAddr: 0x4200, symBinAddr: 0x100007D10, symSize: 0x30 }
  - { offsetInCU: 0x10B4C, offset: 0x10B4C, size: 0x8, addend: 0x0, symName: __ZNSt3__114__split_bufferI6MeteorRNS_9allocatorIS1_EEE17__destruct_at_endB7v160006EPS1_, symObjAddr: 0x4230, symBinAddr: 0x100007D40, symSize: 0x30 }
  - { offsetInCU: 0x10B7E, offset: 0x10B7E, size: 0x8, addend: 0x0, symName: __ZNSt3__114__split_bufferI6MeteorRNS_9allocatorIS1_EEE17__destruct_at_endB7v160006EPS1_NS_17integral_constantIbLb0EEE, symObjAddr: 0x4260, symBinAddr: 0x100007D70, symSize: 0x80 }
  - { offsetInCU: 0x10BBD, offset: 0x10BBD, size: 0x8, addend: 0x0, symName: __ZNSt3__116allocator_traitsINS_9allocatorI6MeteorEEE7destroyB7v160006IS2_vEEvRS3_PT_, symObjAddr: 0x42E0, symBinAddr: 0x100007DF0, symSize: 0x30 }
  - { offsetInCU: 0x10BFA, offset: 0x10BFA, size: 0x8, addend: 0x0, symName: __ZNSt3__19allocatorI6MeteorE7destroyB7v160006EPS1_, symObjAddr: 0x4310, symBinAddr: 0x100007E20, symSize: 0x10 }
  - { offsetInCU: 0x10C2D, offset: 0x10C2D, size: 0x8, addend: 0x0, symName: __ZNSt3__19allocatorI6MeteorE10deallocateB7v160006EPS1_m, symObjAddr: 0x4320, symBinAddr: 0x100007E30, symSize: 0x40 }
  - { offsetInCU: 0x10C6E, offset: 0x10C6E, size: 0x8, addend: 0x0, symName: __ZNKSt3__114__split_bufferI6MeteorRNS_9allocatorIS1_EEE9__end_capB7v160006Ev, symObjAddr: 0x4360, symBinAddr: 0x100007E70, symSize: 0x20 }
  - { offsetInCU: 0x10C93, offset: 0x10C93, size: 0x8, addend: 0x0, symName: __ZNKSt3__117__compressed_pairIP6MeteorRNS_9allocatorIS1_EEE5firstB7v160006Ev, symObjAddr: 0x4380, symBinAddr: 0x100007E90, symSize: 0x20 }
  - { offsetInCU: 0x10CB8, offset: 0x10CB8, size: 0x8, addend: 0x0, symName: __ZN6MeteorC2Eii, symObjAddr: 0x43A0, symBinAddr: 0x100007EB0, symSize: 0x30 }
  - { offsetInCU: 0x10CFD, offset: 0x10CFD, size: 0x8, addend: 0x0, symName: __ZN4Game14generatePortalEv, symObjAddr: 0x43D0, symBinAddr: 0x100007EE0, symSize: 0xB0 }
  - { offsetInCU: 0x10D3E, offset: 0x10D3E, size: 0x8, addend: 0x0, symName: __ZNK4Game16isMeteorPositionEii, symObjAddr: 0x4480, symBinAddr: 0x100007F90, symSize: 0xB0 }
  - { offsetInCU: 0x10DD2, offset: 0x10DD2, size: 0x8, addend: 0x0, symName: __ZN6PortalC1Eii, symObjAddr: 0x4530, symBinAddr: 0x100008040, symSize: 0x30 }
  - { offsetInCU: 0x10E16, offset: 0x10E16, size: 0x8, addend: 0x0, symName: __ZNKSt3__16vectorI6MeteorNS_9allocatorIS1_EEE5beginB7v160006Ev, symObjAddr: 0x4560, symBinAddr: 0x100008070, symSize: 0x30 }
  - { offsetInCU: 0x10E3C, offset: 0x10E3C, size: 0x8, addend: 0x0, symName: __ZNKSt3__16vectorI6MeteorNS_9allocatorIS1_EEE3endB7v160006Ev, symObjAddr: 0x4590, symBinAddr: 0x1000080A0, symSize: 0x30 }
  - { offsetInCU: 0x10E63, offset: 0x10E63, size: 0x8, addend: 0x0, symName: __ZNKSt3__111__wrap_iterIPK6MeteorEdeB7v160006Ev, symObjAddr: 0x45F0, symBinAddr: 0x100008100, symSize: 0x20 }
  - { offsetInCU: 0x10E88, offset: 0x10E88, size: 0x8, addend: 0x0, symName: __ZNSt3__111__wrap_iterIPK6MeteorEppB7v160006Ev, symObjAddr: 0x4610, symBinAddr: 0x100008120, symSize: 0x20 }
  - { offsetInCU: 0x10EAD, offset: 0x10EAD, size: 0x8, addend: 0x0, symName: __ZNKSt3__16vectorI6MeteorNS_9allocatorIS1_EEE11__make_iterB7v160006EPKS1_, symObjAddr: 0x4630, symBinAddr: 0x100008140, symSize: 0x30 }
  - { offsetInCU: 0x10EE1, offset: 0x10EE1, size: 0x8, addend: 0x0, symName: __ZNSt3__111__wrap_iterIPK6MeteorEC1B7v160006EPKvS3_, symObjAddr: 0x4660, symBinAddr: 0x100008170, symSize: 0x30 }
  - { offsetInCU: 0x10F26, offset: 0x10F26, size: 0x8, addend: 0x0, symName: __ZNSt3__111__wrap_iterIPK6MeteorEC2B7v160006EPKvS3_, symObjAddr: 0x4690, symBinAddr: 0x1000081A0, symSize: 0x20 }
  - { offsetInCU: 0x10F6B, offset: 0x10F6B, size: 0x8, addend: 0x0, symName: __ZNKSt3__111__wrap_iterIPK6MeteorE4baseB7v160006Ev, symObjAddr: 0x46F0, symBinAddr: 0x100008200, symSize: 0x20 }
  - { offsetInCU: 0x10F90, offset: 0x10F90, size: 0x8, addend: 0x0, symName: __ZN6PortalC2Eii, symObjAddr: 0x4710, symBinAddr: 0x100008220, symSize: 0x40 }
  - { offsetInCU: 0x10FD5, offset: 0x10FD5, size: 0x8, addend: 0x0, symName: __ZNSt3__16vectorI6MeteorNS_9allocatorIS1_EEED2B7v160006Ev, symObjAddr: 0x4750, symBinAddr: 0x100008260, symSize: 0x40 }
  - { offsetInCU: 0x10FFE, offset: 0x10FFE, size: 0x8, addend: 0x0, symName: __ZNSt3__16vectorI6MeteorNS_9allocatorIS1_EEE16__destroy_vectorC1ERS4_, symObjAddr: 0x4790, symBinAddr: 0x1000082A0, symSize: 0x30 }
  - { offsetInCU: 0x11036, offset: 0x11036, size: 0x8, addend: 0x0, symName: __ZNSt3__16vectorI6MeteorNS_9allocatorIS1_EEE16__destroy_vectorclB7v160006Ev, symObjAddr: 0x47C0, symBinAddr: 0x1000082D0, symSize: 0x90 }
  - { offsetInCU: 0x1105B, offset: 0x1105B, size: 0x8, addend: 0x0, symName: __ZNSt3__16vectorI6MeteorNS_9allocatorIS1_EEE16__destroy_vectorC2ERS4_, symObjAddr: 0x4850, symBinAddr: 0x100008360, symSize: 0x20 }
  - { offsetInCU: 0x11093, offset: 0x11093, size: 0x8, addend: 0x0, symName: __ZNSt3__16vectorI6MeteorNS_9allocatorIS1_EEE7__clearB7v160006Ev, symObjAddr: 0x4880, symBinAddr: 0x100008390, symSize: 0x20 }
  - { offsetInCU: 0x110B8, offset: 0x110B8, size: 0x8, addend: 0x0, symName: __ZNSt3__16vectorI6MeteorNS_9allocatorIS1_EEE22__base_destruct_at_endB7v160006EPS1_, symObjAddr: 0x48A0, symBinAddr: 0x1000083B0, symSize: 0x80 }
  - { offsetInCU: 0x110FB, offset: 0x110FB, size: 0x8, addend: 0x0, symName: __ZN4Game12generateFoodEv, symObjAddr: 0x4920, symBinAddr: 0x100008430, symSize: 0xB0 }
  - { offsetInCU: 0x1113E, offset: 0x1113E, size: 0x8, addend: 0x0, symName: __ZN4Game4drawEv, symObjAddr: 0x49D0, symBinAddr: 0x1000084E0, symSize: 0x3C0 }
  - { offsetInCU: 0x111AA, offset: 0x111AA, size: 0x8, addend: 0x0, symName: __ZN4Game5kbhitEv, symObjAddr: 0x4D90, symBinAddr: 0x1000088A0, symSize: 0x130 }
  - { offsetInCU: 0x11210, offset: 0x11210, size: 0x8, addend: 0x0, symName: __ZN5Snake15changeDirectionEc, symObjAddr: 0x4EC0, symBinAddr: 0x1000089D0, symSize: 0x40 }
  - { offsetInCU: 0x11243, offset: 0x11243, size: 0x8, addend: 0x0, symName: __ZN5Snake4moveER6PortalS1_, symObjAddr: 0x4F00, symBinAddr: 0x100008A10, symSize: 0x1A0 }
  - { offsetInCU: 0x11292, offset: 0x11292, size: 0x8, addend: 0x0, symName: __ZN4Game25checkAndRegeneratePortalsEv, symObjAddr: 0x50A0, symBinAddr: 0x100008BB0, symSize: 0x50 }
  - { offsetInCU: 0x112B7, offset: 0x112B7, size: 0x8, addend: 0x0, symName: __ZN5Snake8eatsFoodERK5Point, symObjAddr: 0x50F0, symBinAddr: 0x100008C00, symSize: 0x70 }
  - { offsetInCU: 0x112EA, offset: 0x112EA, size: 0x8, addend: 0x0, symName: __ZN5Snake14checkCollisionEii, symObjAddr: 0x5160, symBinAddr: 0x100008C70, symSize: 0x80 }
  - { offsetInCU: 0x11339, offset: 0x11339, size: 0x8, addend: 0x0, symName: __ZNSt3__113basic_ostreamIcNS_11char_traitsIcEEElsB7v160006EPFRS3_S4_E, symObjAddr: 0x5220, symBinAddr: 0x100008D30, symSize: 0x20 }
  - { offsetInCU: 0x1136C, offset: 0x1136C, size: 0x8, addend: 0x0, symName: __ZN5Snake18checkSelfCollisionEv, symObjAddr: 0x5290, symBinAddr: 0x100008DA0, symSize: 0xC0 }
  - { offsetInCU: 0x113BC, offset: 0x113BC, size: 0x8, addend: 0x0, symName: __ZN4Game20checkMeteorCollisionEv, symObjAddr: 0x5350, symBinAddr: 0x100008E60, symSize: 0xD0 }
  - { offsetInCU: 0x11444, offset: 0x11444, size: 0x8, addend: 0x0, symName: __ZN4FoodC1Eii, symObjAddr: 0x5420, symBinAddr: 0x100008F30, symSize: 0x30 }
  - { offsetInCU: 0x11489, offset: 0x11489, size: 0x8, addend: 0x0, symName: __ZN4FoodC2Eii, symObjAddr: 0x5450, symBinAddr: 0x100008F60, symSize: 0x30 }
  - { offsetInCU: 0x114CE, offset: 0x114CE, size: 0x8, addend: 0x0, symName: __ZN4Game11clearScreenEv, symObjAddr: 0x5480, symBinAddr: 0x100008F90, symSize: 0x20 }
  - { offsetInCU: 0x114F3, offset: 0x114F3, size: 0x8, addend: 0x0, symName: __ZNKSt3__112basic_stringIcNS_11char_traitsIcEENS_9allocatorIcEEE6lengthB7v160006Ev, symObjAddr: 0x5540, symBinAddr: 0x100009050, symSize: 0x20 }
  - { offsetInCU: 0x11518, offset: 0x11518, size: 0x8, addend: 0x0, symName: __ZNSt3__112basic_stringIcNS_11char_traitsIcEENS_9allocatorIcEEEixB7v160006Em, symObjAddr: 0x5590, symBinAddr: 0x1000090A0, symSize: 0x30 }
  - { offsetInCU: 0x1154C, offset: 0x1154C, size: 0x8, addend: 0x0, symName: __ZNSt3__112basic_stringIcNS_11char_traitsIcEENS_9allocatorIcEEEC1B7v160006EOS5_, symObjAddr: 0x55C0, symBinAddr: 0x1000090D0, symSize: 0x30 }
  - { offsetInCU: 0x11584, offset: 0x11584, size: 0x8, addend: 0x0, symName: __ZNSt3__112basic_stringIcNS_11char_traitsIcEENS_9allocatorIcEEEC2B7v160006EOS5_, symObjAddr: 0x55F0, symBinAddr: 0x100009100, symSize: 0x90 }
  - { offsetInCU: 0x115BC, offset: 0x115BC, size: 0x8, addend: 0x0, symName: __ZNSt3__112basic_stringIcNS_11char_traitsIcEENS_9allocatorIcEEE14__default_initB7v160006Ev, symObjAddr: 0x5680, symBinAddr: 0x100009190, symSize: 0x50 }
  - { offsetInCU: 0x115E1, offset: 0x115E1, size: 0x8, addend: 0x0, symName: __ZNKSt3__112basic_stringIcNS_11char_traitsIcEENS_9allocatorIcEEE9__is_longB7v160006Ev, symObjAddr: 0x56E0, symBinAddr: 0x1000091F0, symSize: 0x30 }
  - { offsetInCU: 0x11606, offset: 0x11606, size: 0x8, addend: 0x0, symName: __ZNSt3__117__compressed_pairINS_12basic_stringIcNS_11char_traitsIcEENS_9allocatorIcEEE5__repES5_E5firstB7v160006Ev, symObjAddr: 0x5720, symBinAddr: 0x100009230, symSize: 0x20 }
  - { offsetInCU: 0x1162B, offset: 0x1162B, size: 0x8, addend: 0x0, symName: __ZNSt3__122__compressed_pair_elemINS_12basic_stringIcNS_11char_traitsIcEENS_9allocatorIcEEE5__repELi0ELb0EE5__getB7v160006Ev, symObjAddr: 0x5740, symBinAddr: 0x100009250, symSize: 0x10 }
  - { offsetInCU: 0x11650, offset: 0x11650, size: 0x8, addend: 0x0, symName: __ZNKSt3__117__compressed_pairINS_12basic_stringIcNS_11char_traitsIcEENS_9allocatorIcEEE5__repES5_E5firstB7v160006Ev, symObjAddr: 0x5750, symBinAddr: 0x100009260, symSize: 0x20 }
  - { offsetInCU: 0x11675, offset: 0x11675, size: 0x8, addend: 0x0, symName: __ZNKSt3__122__compressed_pair_elemINS_12basic_stringIcNS_11char_traitsIcEENS_9allocatorIcEEE5__repELi0ELb0EE5__getB7v160006Ev, symObjAddr: 0x5770, symBinAddr: 0x100009280, symSize: 0x10 }
  - { offsetInCU: 0x1169A, offset: 0x1169A, size: 0x8, addend: 0x0, symName: __ZNKSt3__112basic_stringIcNS_11char_traitsIcEENS_9allocatorIcEEE4sizeB7v160006Ev, symObjAddr: 0x5780, symBinAddr: 0x100009290, symSize: 0x50 }
  - { offsetInCU: 0x116BF, offset: 0x116BF, size: 0x8, addend: 0x0, symName: __ZNKSt3__112basic_stringIcNS_11char_traitsIcEENS_9allocatorIcEEE15__get_long_sizeB7v160006Ev, symObjAddr: 0x57D0, symBinAddr: 0x1000092E0, symSize: 0x20 }
  - { offsetInCU: 0x116E4, offset: 0x116E4, size: 0x8, addend: 0x0, symName: __ZNKSt3__112basic_stringIcNS_11char_traitsIcEENS_9allocatorIcEEE16__get_short_sizeB7v160006Ev, symObjAddr: 0x57F0, symBinAddr: 0x100009300, symSize: 0x30 }
  - { offsetInCU: 0x11727, offset: 0x11727, size: 0x8, addend: 0x0, symName: __ZNKSt3__113basic_ostreamIcNS_11char_traitsIcEEE6sentrycvbB7v160006Ev, symObjAddr: 0x5A10, symBinAddr: 0x100009520, symSize: 0x20 }
  - { offsetInCU: 0x1174C, offset: 0x1174C, size: 0x8, addend: 0x0, symName: __ZNSt3__119ostreambuf_iteratorIcNS_11char_traitsIcEEEC1B7v160006ERNS_13basic_ostreamIcS2_EE, symObjAddr: 0x5C50, symBinAddr: 0x100009760, symSize: 0x30 }
  - { offsetInCU: 0x11782, offset: 0x11782, size: 0x8, addend: 0x0, symName: __ZNKSt3__18ios_base5flagsB7v160006Ev, symObjAddr: 0x5C80, symBinAddr: 0x100009790, symSize: 0x20 }
  - { offsetInCU: 0x117A8, offset: 0x117A8, size: 0x8, addend: 0x0, symName: __ZNKSt3__19basic_iosIcNS_11char_traitsIcEEE4fillB7v160006Ev, symObjAddr: 0x5CA0, symBinAddr: 0x1000097B0, symSize: 0x70 }
  - { offsetInCU: 0x117CF, offset: 0x117CF, size: 0x8, addend: 0x0, symName: __ZNKSt3__119ostreambuf_iteratorIcNS_11char_traitsIcEEE6failedB7v160006Ev, symObjAddr: 0x5D10, symBinAddr: 0x100009820, symSize: 0x20 }
  - { offsetInCU: 0x117F4, offset: 0x117F4, size: 0x8, addend: 0x0, symName: __ZNSt3__19basic_iosIcNS_11char_traitsIcEEE8setstateB7v160006Ej, symObjAddr: 0x5D30, symBinAddr: 0x100009840, symSize: 0x30 }
  - { offsetInCU: 0x11827, offset: 0x11827, size: 0x8, addend: 0x0, symName: __ZNKSt3__18ios_base5widthB7v160006Ev, symObjAddr: 0x5D60, symBinAddr: 0x100009870, symSize: 0x20 }
  - { offsetInCU: 0x1184E, offset: 0x1184E, size: 0x8, addend: 0x0, symName: __ZNSt3__115basic_streambufIcNS_11char_traitsIcEEE5sputnB7v160006EPKcl, symObjAddr: 0x5D80, symBinAddr: 0x100009890, symSize: 0x30 }
  - { offsetInCU: 0x1188F, offset: 0x1188F, size: 0x8, addend: 0x0, symName: __ZNSt3__112basic_stringIcNS_11char_traitsIcEENS_9allocatorIcEEEC1B7v160006Emc, symObjAddr: 0x5DB0, symBinAddr: 0x1000098C0, symSize: 0x30 }
  - { offsetInCU: 0x118D6, offset: 0x118D6, size: 0x8, addend: 0x0, symName: __ZNKSt3__112basic_stringIcNS_11char_traitsIcEENS_9allocatorIcEEE4dataB7v160006Ev, symObjAddr: 0x5DE0, symBinAddr: 0x1000098F0, symSize: 0x30 }
  - { offsetInCU: 0x118FA, offset: 0x118FA, size: 0x8, addend: 0x0, symName: __ZNSt3__18ios_base5widthB7v160006El, symObjAddr: 0x5E10, symBinAddr: 0x100009920, symSize: 0x30 }
  - { offsetInCU: 0x1193F, offset: 0x1193F, size: 0x8, addend: 0x0, symName: __ZNSt3__112basic_stringIcNS_11char_traitsIcEENS_9allocatorIcEEEC2B7v160006Emc, symObjAddr: 0x5E40, symBinAddr: 0x100009950, symSize: 0x50 }
  - { offsetInCU: 0x11986, offset: 0x11986, size: 0x8, addend: 0x0, symName: __ZNSt3__117__compressed_pairINS_12basic_stringIcNS_11char_traitsIcEENS_9allocatorIcEEE5__repES5_EC1B7v160006INS_18__default_init_tagESA_EEOT_OT0_, symObjAddr: 0x5E90, symBinAddr: 0x1000099A0, symSize: 0x30 }
  - { offsetInCU: 0x119DD, offset: 0x119DD, size: 0x8, addend: 0x0, symName: __ZNSt3__117__compressed_pairINS_12basic_stringIcNS_11char_traitsIcEENS_9allocatorIcEEE5__repES5_EC2B7v160006INS_18__default_init_tagESA_EEOT_OT0_, symObjAddr: 0x5EC0, symBinAddr: 0x1000099D0, symSize: 0x30 }
  - { offsetInCU: 0x11A34, offset: 0x11A34, size: 0x8, addend: 0x0, symName: __ZNSt3__122__compressed_pair_elemINS_12basic_stringIcNS_11char_traitsIcEENS_9allocatorIcEEE5__repELi0ELb0EEC2B7v160006ENS_18__default_init_tagE, symObjAddr: 0x5EF0, symBinAddr: 0x100009A00, symSize: 0x10 }
  - { offsetInCU: 0x11A67, offset: 0x11A67, size: 0x8, addend: 0x0, symName: __ZNSt3__122__compressed_pair_elemINS_9allocatorIcEELi1ELb1EEC2B7v160006ENS_18__default_init_tagE, symObjAddr: 0x5F00, symBinAddr: 0x100009A10, symSize: 0x20 }
  - { offsetInCU: 0x11A9A, offset: 0x11A9A, size: 0x8, addend: 0x0, symName: __ZNSt3__19allocatorIcEC2B7v160006Ev, symObjAddr: 0x5F20, symBinAddr: 0x100009A30, symSize: 0x20 }
  - { offsetInCU: 0x11AC3, offset: 0x11AC3, size: 0x8, addend: 0x0, symName: __ZNSt3__116__non_trivial_ifILb1ENS_9allocatorIcEEEC2B7v160006Ev, symObjAddr: 0x5F40, symBinAddr: 0x100009A50, symSize: 0x10 }
  - { offsetInCU: 0x11AEC, offset: 0x11AEC, size: 0x8, addend: 0x0, symName: __ZNKSt3__112basic_stringIcNS_11char_traitsIcEENS_9allocatorIcEEE13__get_pointerB7v160006Ev, symObjAddr: 0x5F60, symBinAddr: 0x100009A70, symSize: 0x50 }
  - { offsetInCU: 0x11B11, offset: 0x11B11, size: 0x8, addend: 0x0, symName: __ZNKSt3__112basic_stringIcNS_11char_traitsIcEENS_9allocatorIcEEE18__get_long_pointerB7v160006Ev, symObjAddr: 0x5FB0, symBinAddr: 0x100009AC0, symSize: 0x20 }
  - { offsetInCU: 0x11B36, offset: 0x11B36, size: 0x8, addend: 0x0, symName: __ZNKSt3__112basic_stringIcNS_11char_traitsIcEENS_9allocatorIcEEE19__get_short_pointerB7v160006Ev, symObjAddr: 0x5FD0, symBinAddr: 0x100009AE0, symSize: 0x30 }
  - { offsetInCU: 0x11B5B, offset: 0x11B5B, size: 0x8, addend: 0x0, symName: __ZNSt3__114pointer_traitsIPKcE10pointer_toB7v160006ERS1_, symObjAddr: 0x6000, symBinAddr: 0x100009B10, symSize: 0x10 }
  - { offsetInCU: 0x11B7E, offset: 0x11B7E, size: 0x8, addend: 0x0, symName: __ZNSt3__119ostreambuf_iteratorIcNS_11char_traitsIcEEEC2B7v160006ERNS_13basic_ostreamIcS2_EE, symObjAddr: 0x6010, symBinAddr: 0x100009B20, symSize: 0x50 }
  - { offsetInCU: 0x11BB4, offset: 0x11BB4, size: 0x8, addend: 0x0, symName: __ZNKSt3__19basic_iosIcNS_11char_traitsIcEEE5rdbufB7v160006Ev, symObjAddr: 0x6060, symBinAddr: 0x100009B70, symSize: 0x20 }
  - { offsetInCU: 0x11BDB, offset: 0x11BDB, size: 0x8, addend: 0x0, symName: __ZNKSt3__18ios_base5rdbufB7v160006Ev, symObjAddr: 0x6080, symBinAddr: 0x100009B90, symSize: 0x20 }
  - { offsetInCU: 0x11C00, offset: 0x11C00, size: 0x8, addend: 0x0, symName: __ZNSt3__111char_traitsIcE11eq_int_typeEii, symObjAddr: 0x60A0, symBinAddr: 0x100009BB0, symSize: 0x20 }
  - { offsetInCU: 0x11C31, offset: 0x11C31, size: 0x8, addend: 0x0, symName: __ZNSt3__111char_traitsIcE3eofEv, symObjAddr: 0x60C0, symBinAddr: 0x100009BD0, symSize: 0x10 }
  - { offsetInCU: 0x11C44, offset: 0x11C44, size: 0x8, addend: 0x0, symName: __ZNKSt3__19basic_iosIcNS_11char_traitsIcEEE5widenB7v160006Ec, symObjAddr: 0x60D0, symBinAddr: 0x100009BE0, symSize: 0x80 }
  - { offsetInCU: 0x11CB1, offset: 0x11CB1, size: 0x8, addend: 0x0, symName: __ZNKSt3__15ctypeIcE5widenB7v160006Ec, symObjAddr: 0x6180, symBinAddr: 0x100009C90, symSize: 0x30 }
  - { offsetInCU: 0x11CE4, offset: 0x11CE4, size: 0x8, addend: 0x0, symName: __ZNSt3__18ios_base8setstateB7v160006Ej, symObjAddr: 0x61B0, symBinAddr: 0x100009CC0, symSize: 0x30 }
  - { offsetInCU: 0x11D1A, offset: 0x11D1A, size: 0x8, addend: 0x0, symName: __ZNSt3__112basic_stringIcNS_11char_traitsIcEENS_9allocatorIcEEE13__get_pointerB7v160006Ev, symObjAddr: 0x61E0, symBinAddr: 0x100009CF0, symSize: 0x50 }
  - { offsetInCU: 0x11D3F, offset: 0x11D3F, size: 0x8, addend: 0x0, symName: __ZNSt3__112basic_stringIcNS_11char_traitsIcEENS_9allocatorIcEEE18__get_long_pointerB7v160006Ev, symObjAddr: 0x6230, symBinAddr: 0x100009D40, symSize: 0x20 }
  - { offsetInCU: 0x11D64, offset: 0x11D64, size: 0x8, addend: 0x0, symName: __ZNSt3__112basic_stringIcNS_11char_traitsIcEENS_9allocatorIcEEE19__get_short_pointerB7v160006Ev, symObjAddr: 0x6250, symBinAddr: 0x100009D60, symSize: 0x30 }
  - { offsetInCU: 0x11D89, offset: 0x11D89, size: 0x8, addend: 0x0, symName: __ZNSt3__114pointer_traitsIPcE10pointer_toB7v160006ERc, symObjAddr: 0x6280, symBinAddr: 0x100009D90, symSize: 0x10 }
  - { offsetInCU: 0x11DAC, offset: 0x11DAC, size: 0x8, addend: 0x0, symName: __ZN5Snake16isValidDirectionEc, symObjAddr: 0x6290, symBinAddr: 0x100009DA0, symSize: 0xB0 }
  - { offsetInCU: 0x11DDF, offset: 0x11DDF, size: 0x8, addend: 0x0, symName: __ZNSt3__16vectorI5PointNS_9allocatorIS1_EEE5frontB7v160006Ev, symObjAddr: 0x6340, symBinAddr: 0x100009E50, symSize: 0x20 }
  - { offsetInCU: 0x11E04, offset: 0x11E04, size: 0x8, addend: 0x0, symName: __ZN5Snake17teleportSnakeHeadERK5Point, symObjAddr: 0x6360, symBinAddr: 0x100009E70, symSize: 0x50 }
  - { offsetInCU: 0x11E36, offset: 0x11E36, size: 0x8, addend: 0x0, symName: __ZNSt3__16vectorI5PointNS_9allocatorIS1_EEE6insertENS_11__wrap_iterIPKS1_EERS6_, symObjAddr: 0x63B0, symBinAddr: 0x100009EC0, symSize: 0x200 }
  - { offsetInCU: 0x11ECC, offset: 0x11ECC, size: 0x8, addend: 0x0, symName: __ZNSt3__16vectorI5PointNS_9allocatorIS1_EEE5beginB7v160006Ev, symObjAddr: 0x65B0, symBinAddr: 0x10000A0C0, symSize: 0x30 }
  - { offsetInCU: 0x11EFD, offset: 0x11EFD, size: 0x8, addend: 0x0, symName: __ZNSt3__111__wrap_iterIPK5PointEC1B7v160006IPS1_EERKNS0_IT_EEPNS_9enable_ifIXsr14is_convertibleIS7_S3_EE5valueEvE4typeE, symObjAddr: 0x65E0, symBinAddr: 0x10000A0F0, symSize: 0x30 }
  - { offsetInCU: 0x11F46, offset: 0x11F46, size: 0x8, addend: 0x0, symName: __ZNSt3__16vectorI5PointNS_9allocatorIS1_EEE8pop_backEv, symObjAddr: 0x6610, symBinAddr: 0x10000A120, symSize: 0x30 }
  - { offsetInCU: 0x11F6D, offset: 0x11F6D, size: 0x8, addend: 0x0, symName: __ZNSt3__16vectorI5PointNS_9allocatorIS1_EEE22__construct_one_at_endB7v160006IJRKS1_EEEvDpOT_, symObjAddr: 0x6680, symBinAddr: 0x10000A190, symSize: 0x90 }
  - { offsetInCU: 0x11FBA, offset: 0x11FBA, size: 0x8, addend: 0x0, symName: __ZNSt3__16vectorI5PointNS_9allocatorIS1_EEE12__move_rangeEPS1_S5_S5_, symObjAddr: 0x6710, symBinAddr: 0x10000A220, symSize: 0x130 }
  - { offsetInCU: 0x12079, offset: 0x12079, size: 0x8, addend: 0x0, symName: __ZNSt3__114pointer_traitsIPK5PointE10pointer_toB7v160006ERS2_, symObjAddr: 0x6840, symBinAddr: 0x10000A350, symSize: 0x10 }
  - { offsetInCU: 0x1209B, offset: 0x1209B, size: 0x8, addend: 0x0, symName: __ZNSt3__114__split_bufferI5PointRNS_9allocatorIS1_EEE9push_backB7v160006ERKS1_, symObjAddr: 0x6850, symBinAddr: 0x10000A360, symSize: 0x290 }
  - { offsetInCU: 0x12113, offset: 0x12113, size: 0x8, addend: 0x0, symName: __ZNSt3__16vectorI5PointNS_9allocatorIS1_EEE11__make_iterB7v160006EPS1_, symObjAddr: 0x6C50, symBinAddr: 0x10000A760, symSize: 0x30 }
  - { offsetInCU: 0x12147, offset: 0x12147, size: 0x8, addend: 0x0, symName: __ZNKSt3__111__wrap_iterIP5PointE4baseB7v160006Ev, symObjAddr: 0x6C80, symBinAddr: 0x10000A790, symSize: 0x20 }
  - { offsetInCU: 0x1216C, offset: 0x1216C, size: 0x8, addend: 0x0, symName: __ZNSt3__116allocator_traitsINS_9allocatorI5PointEEE9constructB7v160006IS2_JRKS2_EvEEvRS3_PT_DpOT0_, symObjAddr: 0x6CA0, symBinAddr: 0x10000A7B0, symSize: 0x30 }
  - { offsetInCU: 0x121C3, offset: 0x121C3, size: 0x8, addend: 0x0, symName: __ZNSt3__19allocatorI5PointE9constructB7v160006IS1_JRKS1_EEEvPT_DpOT0_, symObjAddr: 0x6CD0, symBinAddr: 0x10000A7E0, symSize: 0x20 }
  - { offsetInCU: 0x1223B, offset: 0x1223B, size: 0x8, addend: 0x0, symName: __ZNKSt3__123__move_backward_trivialclB7v160006I5PointS2_Li0EEENS_4pairIPT_PT0_EES5_S5_S7_, symObjAddr: 0x6EB0, symBinAddr: 0x10000A9C0, symSize: 0x40 }
  - { offsetInCU: 0x122A2, offset: 0x122A2, size: 0x8, addend: 0x0, symName: __ZNSt3__14pairIP5PointS2_EC1B7v160006IRS2_S5_LPv0EEEOT_OT0_, symObjAddr: 0x7060, symBinAddr: 0x10000AB70, symSize: 0x30 }
  - { offsetInCU: 0x122FF, offset: 0x122FF, size: 0x8, addend: 0x0, symName: __ZNSt3__14pairIP5PointS2_EC2B7v160006IRS2_S5_LPv0EEEOT_OT0_, symObjAddr: 0x7090, symBinAddr: 0x10000ABA0, symSize: 0x30 }
  - { offsetInCU: 0x1235C, offset: 0x1235C, size: 0x8, addend: 0x0, symName: __ZNSt3__118__unwrap_iter_implIP5PointLb1EE8__unwrapB7v160006ES2_, symObjAddr: 0x70C0, symBinAddr: 0x10000ABD0, symSize: 0x20 }
  - { offsetInCU: 0x12384, offset: 0x12384, size: 0x8, addend: 0x0, symName: __ZNSt3__14pairIP5PointS2_EC1B7v160006IS2_S2_LPv0EEEOT_OT0_, symObjAddr: 0x70E0, symBinAddr: 0x10000ABF0, symSize: 0x30 }
  - { offsetInCU: 0x123E1, offset: 0x123E1, size: 0x8, addend: 0x0, symName: __ZNSt3__14pairIP5PointS2_EC2B7v160006IS2_S2_LPv0EEEOT_OT0_, symObjAddr: 0x7110, symBinAddr: 0x10000AC20, symSize: 0x30 }
  - { offsetInCU: 0x1243E, offset: 0x1243E, size: 0x8, addend: 0x0, symName: __ZNSt3__118__unwrap_iter_implIP5PointLb1EE8__rewrapB7v160006ES2_S2_, symObjAddr: 0x7140, symBinAddr: 0x10000AC50, symSize: 0x50 }
  - { offsetInCU: 0x1246E, offset: 0x1246E, size: 0x8, addend: 0x0, symName: __ZNSt3__114__split_bufferI5PointRNS_9allocatorIS1_EEE18__construct_at_endINS_13move_iteratorIPS1_EEEENS_9enable_ifIXsr27__is_cpp17_forward_iteratorIT_EE5valueEvE4typeESB_SB_, symObjAddr: 0x71D0, symBinAddr: 0x10000ACE0, symSize: 0x100 }
  - { offsetInCU: 0x124C9, offset: 0x124C9, size: 0x8, addend: 0x0, symName: __ZNSt3__113move_iteratorIP5PointEC1B7v160006ES2_, symObjAddr: 0x72D0, symBinAddr: 0x10000ADE0, symSize: 0x30 }
  - { offsetInCU: 0x1250A, offset: 0x1250A, size: 0x8, addend: 0x0, symName: __ZNKSt3__114__move_trivialclB7v160006I5PointS2_Li0EEENS_4pairIPT_PT0_EES5_S5_S7_, symObjAddr: 0x7430, symBinAddr: 0x10000AF40, symSize: 0x40 }
  - { offsetInCU: 0x12571, offset: 0x12571, size: 0x8, addend: 0x0, symName: __ZNSt3__14pairIP5PointS2_EC1B7v160006IRS2_S2_LPv0EEEOT_OT0_, symObjAddr: 0x7510, symBinAddr: 0x10000B020, symSize: 0x30 }
  - { offsetInCU: 0x125CE, offset: 0x125CE, size: 0x8, addend: 0x0, symName: __ZNSt3__14pairIP5PointS2_EC2B7v160006IRS2_S2_LPv0EEEOT_OT0_, symObjAddr: 0x7540, symBinAddr: 0x10000B050, symSize: 0x30 }
  - { offsetInCU: 0x12635, offset: 0x12635, size: 0x8, addend: 0x0, symName: __ZNSt3__114__split_bufferI5PointRNS_9allocatorIS1_EEE21_ConstructTransactionC1B7v160006EPPS1_m, symObjAddr: 0x75B0, symBinAddr: 0x10000B0C0, symSize: 0x30 }
  - { offsetInCU: 0x1267A, offset: 0x1267A, size: 0x8, addend: 0x0, symName: __ZNKSt3__113move_iteratorIP5PointEdeB7v160006Ev, symObjAddr: 0x75E0, symBinAddr: 0x10000B0F0, symSize: 0x20 }
  - { offsetInCU: 0x1269F, offset: 0x1269F, size: 0x8, addend: 0x0, symName: __ZNSt3__113move_iteratorIP5PointEppB7v160006Ev, symObjAddr: 0x7600, symBinAddr: 0x10000B110, symSize: 0x20 }
  - { offsetInCU: 0x126C4, offset: 0x126C4, size: 0x8, addend: 0x0, symName: __ZNSt3__114__split_bufferI5PointRNS_9allocatorIS1_EEE21_ConstructTransactionD1B7v160006Ev, symObjAddr: 0x7620, symBinAddr: 0x10000B130, symSize: 0x20 }
  - { offsetInCU: 0x126ED, offset: 0x126ED, size: 0x8, addend: 0x0, symName: __ZNKSt3__113move_iteratorIP5PointE4baseB7v160006Ev, symObjAddr: 0x76B0, symBinAddr: 0x10000B1C0, symSize: 0x20 }
  - { offsetInCU: 0x12712, offset: 0x12712, size: 0x8, addend: 0x0, symName: __ZNSt3__114__split_bufferI5PointRNS_9allocatorIS1_EEE21_ConstructTransactionC2B7v160006EPPS1_m, symObjAddr: 0x76D0, symBinAddr: 0x10000B1E0, symSize: 0x40 }
  - { offsetInCU: 0x12757, offset: 0x12757, size: 0x8, addend: 0x0, symName: __ZNSt3__114__split_bufferI5PointRNS_9allocatorIS1_EEE21_ConstructTransactionD2B7v160006Ev, symObjAddr: 0x7710, symBinAddr: 0x10000B220, symSize: 0x20 }
  - { offsetInCU: 0x12780, offset: 0x12780, size: 0x8, addend: 0x0, symName: __ZNSt3__113move_iteratorIP5PointEC2B7v160006ES2_, symObjAddr: 0x7730, symBinAddr: 0x10000B240, symSize: 0x20 }
  - { offsetInCU: 0x127B7, offset: 0x127B7, size: 0x8, addend: 0x0, symName: __ZNSt3__111__wrap_iterIP5PointEC1B7v160006EPKvS2_, symObjAddr: 0x7780, symBinAddr: 0x10000B290, symSize: 0x30 }
  - { offsetInCU: 0x127FC, offset: 0x127FC, size: 0x8, addend: 0x0, symName: __ZNSt3__111__wrap_iterIP5PointEC2B7v160006EPKvS2_, symObjAddr: 0x77B0, symBinAddr: 0x10000B2C0, symSize: 0x20 }
  - { offsetInCU: 0x12841, offset: 0x12841, size: 0x8, addend: 0x0, symName: __ZNSt3__111__wrap_iterIPK5PointEC2B7v160006IPS1_EERKNS0_IT_EEPNS_9enable_ifIXsr14is_convertibleIS7_S3_EE5valueEvE4typeE, symObjAddr: 0x77D0, symBinAddr: 0x10000B2E0, symSize: 0x40 }
  - { offsetInCU: 0x1288B, offset: 0x1288B, size: 0x8, addend: 0x0, symName: __ZNSt3__16vectorI5PointNS_9allocatorIS1_EEE17__destruct_at_endB7v160006EPS1_, symObjAddr: 0x7810, symBinAddr: 0x10000B320, symSize: 0x60 }
  - { offsetInCU: 0x128CD, offset: 0x128CD, size: 0x8, addend: 0x0, symName: __ZNSt3__16vectorI5PointNS_9allocatorIS1_EEE27__invalidate_iterators_pastB7v160006EPS1_, symObjAddr: 0x7870, symBinAddr: 0x10000B380, symSize: 0x10 }
  - { offsetInCU: 0x12903, offset: 0x12903, size: 0x8, addend: 0x0, symName: __ZN5Snake4growEv, symObjAddr: 0x7880, symBinAddr: 0x10000B390, symSize: 0x30 }
  - { offsetInCU: 0x12927, offset: 0x12927, size: 0x8, addend: 0x0, symName: __ZNSt3__16vectorI5PointNS_9allocatorIS1_EEE9push_backB7v160006ERKS1_, symObjAddr: 0x78B0, symBinAddr: 0x10000B3C0, symSize: 0x60 }
  - { offsetInCU: 0x1295D, offset: 0x1295D, size: 0x8, addend: 0x0, symName: __ZNSt3__16vectorI5PointNS_9allocatorIS1_EEE4backB7v160006Ev, symObjAddr: 0x7910, symBinAddr: 0x10000B420, symSize: 0x20 }
  - { offsetInCU: 0x12981, offset: 0x12981, size: 0x8, addend: 0x0, symName: __ZNSt3__16vectorI5PointNS_9allocatorIS1_EEE21__push_back_slow_pathIRKS1_EEvOT_, symObjAddr: 0x7930, symBinAddr: 0x10000B440, symSize: 0xD0 }
  - { offsetInCU: 0x129DE, offset: 0x129DE, size: 0x8, addend: 0x0, symName: __ZNSt3__111char_traitsIcE6lengthEPKc, symObjAddr: 0x7A00, symBinAddr: 0x10000B510, symSize: 0x30 }
  - { offsetInCU: 0x12A00, offset: 0x12A00, size: 0x8, addend: 0x0, symName: __ZNSt3__16vectorI5PointNS_9allocatorIS1_EEEixB7v160006Em, symObjAddr: 0x7A50, symBinAddr: 0x10000B560, symSize: 0x20 }
  - { offsetInCU: 0x12A36, offset: 0x12A36, size: 0x8, addend: 0x0, symName: __ZNKSt3__16vectorI5PointNS_9allocatorIS1_EEE5frontB7v160006Ev, symObjAddr: 0x7A70, symBinAddr: 0x10000B580, symSize: 0x20 }
  - { offsetInCU: 0x12A5A, offset: 0x12A5A, size: 0x8, addend: 0x0, symName: __ZNSt3__16vectorI6MeteorNS_9allocatorIS1_EEE5beginB7v160006Ev, symObjAddr: 0x7A90, symBinAddr: 0x10000B5A0, symSize: 0x30 }
  - { offsetInCU: 0x12A80, offset: 0x12A80, size: 0x8, addend: 0x0, symName: __ZNSt3__16vectorI6MeteorNS_9allocatorIS1_EEE3endB7v160006Ev, symObjAddr: 0x7AC0, symBinAddr: 0x10000B5D0, symSize: 0x30 }
  - { offsetInCU: 0x12AA7, offset: 0x12AA7, size: 0x8, addend: 0x0, symName: __ZNKSt3__111__wrap_iterIP6MeteorEdeB7v160006Ev, symObjAddr: 0x7B20, symBinAddr: 0x10000B630, symSize: 0x20 }
  - { offsetInCU: 0x12ACC, offset: 0x12ACC, size: 0x8, addend: 0x0, symName: __ZNSt3__111__wrap_iterIP6MeteorEppB7v160006Ev, symObjAddr: 0x7B40, symBinAddr: 0x10000B650, symSize: 0x20 }
  - { offsetInCU: 0x12AF1, offset: 0x12AF1, size: 0x8, addend: 0x0, symName: __ZNSt3__16vectorI6MeteorNS_9allocatorIS1_EEE11__make_iterB7v160006EPS1_, symObjAddr: 0x7B60, symBinAddr: 0x10000B670, symSize: 0x30 }
  - { offsetInCU: 0x12B25, offset: 0x12B25, size: 0x8, addend: 0x0, symName: __ZNSt3__111__wrap_iterIP6MeteorEC1B7v160006EPKvS2_, symObjAddr: 0x7B90, symBinAddr: 0x10000B6A0, symSize: 0x30 }
  - { offsetInCU: 0x12B6A, offset: 0x12B6A, size: 0x8, addend: 0x0, symName: __ZNSt3__111__wrap_iterIP6MeteorEC2B7v160006EPKvS2_, symObjAddr: 0x7BC0, symBinAddr: 0x10000B6D0, symSize: 0x20 }
  - { offsetInCU: 0x12BAF, offset: 0x12BAF, size: 0x8, addend: 0x0, symName: __ZNKSt3__111__wrap_iterIP6MeteorE4baseB7v160006Ev, symObjAddr: 0x7C20, symBinAddr: 0x10000B730, symSize: 0x20 }
  - { offsetInCU: 0x12BD4, offset: 0x12BD4, size: 0x8, addend: 0x0, symName: __ZN4GameD2Ev, symObjAddr: 0x7C40, symBinAddr: 0x10000B750, symSize: 0x2C }
...
